
/home/amusa/workbench/titancfi/benchmarks/embench-iot/bd/src/aha-mont64/aha-mont64:     file format elf64-littleriscv


Disassembly of section .plt:

0000000000010440 <_PROCEDURE_LINKAGE_TABLE_>:
   10440:	00002397          	auipc	t2,0x2
   10444:	41c30333          	sub	t1,t1,t3
   10448:	bc03be03          	ld	t3,-1088(t2) # 12000 <__TMC_END__>
   1044c:	fd430313          	add	t1,t1,-44
   10450:	bc038293          	add	t0,t2,-1088
   10454:	00135313          	srl	t1,t1,0x1
   10458:	0082b283          	ld	t0,8(t0)
   1045c:	000e0067          	jr	t3

0000000000010460 <__libc_start_main@plt>:
   10460:	00002e17          	auipc	t3,0x2
   10464:	bb0e3e03          	ld	t3,-1104(t3) # 12010 <__libc_start_main@GLIBC_2.34>
   10468:	000e0367          	jalr	t1,t3
   1046c:	00000013          	nop

Disassembly of section .text:

0000000000010470 <main>:
   10470:	1101                	add	sp,sp,-32
   10472:	ec06                	sd	ra,24(sp)
   10474:	35c000ef          	jal	107d0 <initialise_board>
   10478:	338000ef          	jal	107b0 <initialise_benchmark>
   1047c:	4505                	li	a0,1
   1047e:	32a000ef          	jal	107a8 <warm_caches>
   10482:	350000ef          	jal	107d2 <start_trigger>
   10486:	324000ef          	jal	107aa <benchmark>
   1048a:	c62a                	sw	a0,12(sp)
   1048c:	348000ef          	jal	107d4 <stop_trigger>
   10490:	4532                	lw	a0,12(sp)
   10492:	338000ef          	jal	107ca <verify_benchmark>
   10496:	60e2                	ld	ra,24(sp)
   10498:	00153513          	seqz	a0,a0
   1049c:	6105                	add	sp,sp,32
   1049e:	8082                	ret

00000000000104a0 <_start>:
   104a0:	022000ef          	jal	104c2 <load_gp>
   104a4:	87aa                	mv	a5,a0
   104a6:	00000517          	auipc	a0,0x0
   104aa:	fca50513          	add	a0,a0,-54 # 10470 <main>
   104ae:	6582                	ld	a1,0(sp)
   104b0:	0030                	add	a2,sp,8
   104b2:	ff017113          	and	sp,sp,-16
   104b6:	4681                	li	a3,0
   104b8:	4701                	li	a4,0
   104ba:	880a                	mv	a6,sp
   104bc:	fa5ff0ef          	jal	10460 <__libc_start_main@plt>
   104c0:	9002                	ebreak

00000000000104c2 <load_gp>:
   104c2:	00002197          	auipc	gp,0x2
   104c6:	33e18193          	add	gp,gp,830 # 12800 <__global_pointer$>
   104ca:	8082                	ret
	...

00000000000104ce <deregister_tm_clones>:
   104ce:	6549                	lui	a0,0x12
   104d0:	6749                	lui	a4,0x12
   104d2:	00050793          	mv	a5,a0
   104d6:	00070713          	mv	a4,a4
   104da:	00f70863          	beq	a4,a5,104ea <deregister_tm_clones+0x1c>
   104de:	00000793          	li	a5,0
   104e2:	c781                	beqz	a5,104ea <deregister_tm_clones+0x1c>
   104e4:	00050513          	mv	a0,a0
   104e8:	8782                	jr	a5
   104ea:	8082                	ret

00000000000104ec <register_tm_clones>:
   104ec:	6549                	lui	a0,0x12
   104ee:	00050793          	mv	a5,a0
   104f2:	6749                	lui	a4,0x12
   104f4:	00070593          	mv	a1,a4
   104f8:	8d9d                	sub	a1,a1,a5
   104fa:	4035d793          	sra	a5,a1,0x3
   104fe:	91fd                	srl	a1,a1,0x3f
   10500:	95be                	add	a1,a1,a5
   10502:	8585                	sra	a1,a1,0x1
   10504:	c599                	beqz	a1,10512 <register_tm_clones+0x26>
   10506:	00000793          	li	a5,0
   1050a:	c781                	beqz	a5,10512 <register_tm_clones+0x26>
   1050c:	00050513          	mv	a0,a0
   10510:	8782                	jr	a5
   10512:	8082                	ret

0000000000010514 <__do_global_dtors_aux>:
   10514:	1141                	add	sp,sp,-16
   10516:	e022                	sd	s0,0(sp)
   10518:	8501c783          	lbu	a5,-1968(gp) # 12050 <completed.0>
   1051c:	e406                	sd	ra,8(sp)
   1051e:	e791                	bnez	a5,1052a <__do_global_dtors_aux+0x16>
   10520:	fafff0ef          	jal	104ce <deregister_tm_clones>
   10524:	4785                	li	a5,1
   10526:	84f18823          	sb	a5,-1968(gp) # 12050 <completed.0>
   1052a:	60a2                	ld	ra,8(sp)
   1052c:	6402                	ld	s0,0(sp)
   1052e:	0141                	add	sp,sp,16
   10530:	8082                	ret

0000000000010532 <frame_dummy>:
   10532:	bf6d                	j	104ec <register_tm_clones>

0000000000010534 <benchmark_body>:
   10534:	26a05863          	blez	a0,107a4 <benchmark_body+0x270>
   10538:	8401be03          	ld	t3,-1984(gp) # 12040 <in_b>
   1053c:	8481be83          	ld	t4,-1976(gp) # 12048 <in_a>
   10540:	8381b783          	ld	a5,-1992(gp) # 12038 <in_m>
   10544:	03ce8fb3          	mul	t6,t4,t3
   10548:	7139                	add	sp,sp,-64
   1054a:	587d                	li	a6,-1
   1054c:	fc22                	sd	s0,56(sp)
   1054e:	f826                	sd	s1,48(sp)
   10550:	f44a                	sd	s2,40(sp)
   10552:	f04e                	sd	s3,32(sp)
   10554:	ec52                	sd	s4,24(sp)
   10556:	832a                	mv	t1,a0
   10558:	4881                	li	a7,0
   1055a:	03cebf33          	mulhu	t5,t4,t3
   1055e:	187e                	sll	a6,a6,0x3f
   10560:	877e                	mv	a4,t6
   10562:	86fa                	mv	a3,t5
   10564:	04000593          	li	a1,64
   10568:	03f75293          	srl	t0,a4,0x3f
   1056c:	00169513          	sll	a0,a3,0x1
   10570:	43f6d613          	sra	a2,a3,0x3f
   10574:	00a2e6b3          	or	a3,t0,a0
   10578:	8e55                	or	a2,a2,a3
   1057a:	15fd                	add	a1,a1,-1
   1057c:	0706                	sll	a4,a4,0x1
   1057e:	00f66463          	bltu	a2,a5,10586 <benchmark_body+0x52>
   10582:	8e9d                	sub	a3,a3,a5
   10584:	0705                	add	a4,a4,1 # 12001 <__TMC_END__+0x1>
   10586:	f1ed                	bnez	a1,10568 <benchmark_body+0x34>
   10588:	02d6b733          	mulhu	a4,a3,a3
   1058c:	04000593          	li	a1,64
   10590:	02d686b3          	mul	a3,a3,a3
   10594:	03f6d293          	srl	t0,a3,0x3f
   10598:	00171513          	sll	a0,a4,0x1
   1059c:	43f75613          	sra	a2,a4,0x3f
   105a0:	00a2e733          	or	a4,t0,a0
   105a4:	8e59                	or	a2,a2,a4
   105a6:	15fd                	add	a1,a1,-1
   105a8:	0686                	sll	a3,a3,0x1
   105aa:	00f66463          	bltu	a2,a5,105b2 <benchmark_body+0x7e>
   105ae:	8f1d                	sub	a4,a4,a5
   105b0:	0685                	add	a3,a3,1
   105b2:	f1ed                	bnez	a1,10594 <benchmark_body+0x60>
   105b4:	02e735b3          	mulhu	a1,a4,a4
   105b8:	04000693          	li	a3,64
   105bc:	02e70733          	mul	a4,a4,a4
   105c0:	03f75293          	srl	t0,a4,0x3f
   105c4:	00159513          	sll	a0,a1,0x1
   105c8:	43f5d613          	sra	a2,a1,0x3f
   105cc:	00a2e5b3          	or	a1,t0,a0
   105d0:	8e4d                	or	a2,a2,a1
   105d2:	16fd                	add	a3,a3,-1
   105d4:	0706                	sll	a4,a4,0x1
   105d6:	00f66463          	bltu	a2,a5,105de <benchmark_body+0xaa>
   105da:	8d9d                	sub	a1,a1,a5
   105dc:	0705                	add	a4,a4,1
   105de:	f2ed                	bnez	a3,105c0 <benchmark_body+0x8c>
   105e0:	4281                	li	t0,0
   105e2:	04000393          	li	t2,64
   105e6:	4605                	li	a2,1
   105e8:	00c7c733          	xor	a4,a5,a2
   105ec:	00167513          	and	a0,a2,1
   105f0:	00c7f433          	and	s0,a5,a2
   105f4:	8305                	srl	a4,a4,0x1
   105f6:	0012d293          	srl	t0,t0,0x1
   105fa:	8205                	srl	a2,a2,0x1
   105fc:	c501                	beqz	a0,10604 <benchmark_body+0xd0>
   105fe:	00e40633          	add	a2,s0,a4
   10602:	92c2                	add	t0,t0,a6
   10604:	33fd                	addw	t2,t2,-1
   10606:	fe0391e3          	bnez	t2,105e8 <benchmark_body+0xb4>
   1060a:	e032                	sd	a2,0(sp)
   1060c:	e416                	sd	t0,8(sp)
   1060e:	6702                	ld	a4,0(sp)
   10610:	62a2                	ld	t0,8(sp)
   10612:	8676                	mv	a2,t4
   10614:	04000713          	li	a4,64
   10618:	03f6d413          	srl	s0,a3,0x3f
   1061c:	00161393          	sll	t2,a2,0x1
   10620:	43f65513          	sra	a0,a2,0x3f
   10624:	00746633          	or	a2,s0,t2
   10628:	8d51                	or	a0,a0,a2
   1062a:	177d                	add	a4,a4,-1
   1062c:	0686                	sll	a3,a3,0x1
   1062e:	00f56463          	bltu	a0,a5,10636 <benchmark_body+0x102>
   10632:	8e1d                	sub	a2,a2,a5
   10634:	0685                	add	a3,a3,1
   10636:	f36d                	bnez	a4,10618 <benchmark_body+0xe4>
   10638:	86f2                	mv	a3,t3
   1063a:	04000393          	li	t2,64
   1063e:	03f75493          	srl	s1,a4,0x3f
   10642:	00169413          	sll	s0,a3,0x1
   10646:	43f6d513          	sra	a0,a3,0x3f
   1064a:	0084e6b3          	or	a3,s1,s0
   1064e:	8d55                	or	a0,a0,a3
   10650:	13fd                	add	t2,t2,-1
   10652:	0706                	sll	a4,a4,0x1
   10654:	00f56463          	bltu	a0,a5,1065c <benchmark_body+0x128>
   10658:	8e9d                	sub	a3,a3,a5
   1065a:	0705                	add	a4,a4,1
   1065c:	fe0391e3          	bnez	t2,1063e <benchmark_body+0x10a>
   10660:	02d60733          	mul	a4,a2,a3
   10664:	69a2                	ld	s3,8(sp)
   10666:	6922                	ld	s2,8(sp)
   10668:	63a2                	ld	t2,8(sp)
   1066a:	6402                	ld	s0,0(sp)
   1066c:	04000513          	li	a0,64
   10670:	02e989b3          	mul	s3,s3,a4
   10674:	02f984b3          	mul	s1,s3,a5
   10678:	02d63633          	mulhu	a2,a2,a3
   1067c:	009706b3          	add	a3,a4,s1
   10680:	00e6ba33          	sltu	s4,a3,a4
   10684:	00e6b4b3          	sltu	s1,a3,a4
   10688:	02f9b733          	mulhu	a4,s3,a5
   1068c:	00e606b3          	add	a3,a2,a4
   10690:	96d2                	add	a3,a3,s4
   10692:	40d609b3          	sub	s3,a2,a3
   10696:	00f6ba33          	sltu	s4,a3,a5
   1069a:	00c6b733          	sltu	a4,a3,a2
   1069e:	001a4a13          	xor	s4,s4,1
   106a2:	0019b613          	seqz	a2,s3
   106a6:	8e65                	and	a2,a2,s1
   106a8:	01476733          	or	a4,a4,s4
   106ac:	8f51                	or	a4,a4,a2
   106ae:	0ff77713          	zext.b	a4,a4
   106b2:	40e00733          	neg	a4,a4
   106b6:	8f7d                	and	a4,a4,a5
   106b8:	40e68733          	sub	a4,a3,a4
   106bc:	02e70633          	mul	a2,a4,a4
   106c0:	02c90933          	mul	s2,s2,a2
   106c4:	02f904b3          	mul	s1,s2,a5
   106c8:	02e736b3          	mulhu	a3,a4,a4
   106cc:	00960733          	add	a4,a2,s1
   106d0:	00c734b3          	sltu	s1,a4,a2
   106d4:	00c739b3          	sltu	s3,a4,a2
   106d8:	02f93733          	mulhu	a4,s2,a5
   106dc:	9736                	add	a4,a4,a3
   106de:	974e                	add	a4,a4,s3
   106e0:	40e68633          	sub	a2,a3,a4
   106e4:	00f73933          	sltu	s2,a4,a5
   106e8:	00d736b3          	sltu	a3,a4,a3
   106ec:	00163613          	seqz	a2,a2
   106f0:	00194913          	xor	s2,s2,1
   106f4:	8e65                	and	a2,a2,s1
   106f6:	0126e6b3          	or	a3,a3,s2
   106fa:	8ed1                	or	a3,a3,a2
   106fc:	0ff6f693          	zext.b	a3,a3
   10700:	40d006b3          	neg	a3,a3
   10704:	8efd                	and	a3,a3,a5
   10706:	40d706b3          	sub	a3,a4,a3
   1070a:	02d68633          	mul	a2,a3,a3
   1070e:	02c38733          	mul	a4,t2,a2
   10712:	02f703b3          	mul	t2,a4,a5
   10716:	02d6b6b3          	mulhu	a3,a3,a3
   1071a:	93b2                	add	t2,t2,a2
   1071c:	00c3b4b3          	sltu	s1,t2,a2
   10720:	00c3b3b3          	sltu	t2,t2,a2
   10724:	02f73733          	mulhu	a4,a4,a5
   10728:	9736                	add	a4,a4,a3
   1072a:	9726                	add	a4,a4,s1
   1072c:	40e68633          	sub	a2,a3,a4
   10730:	00f734b3          	sltu	s1,a4,a5
   10734:	00d736b3          	sltu	a3,a4,a3
   10738:	00163613          	seqz	a2,a2
   1073c:	0014c493          	xor	s1,s1,1
   10740:	00767633          	and	a2,a2,t2
   10744:	8ec5                	or	a3,a3,s1
   10746:	8ed1                	or	a3,a3,a2
   10748:	0ff6f693          	zext.b	a3,a3
   1074c:	40d006b3          	neg	a3,a3
   10750:	8efd                	and	a3,a3,a5
   10752:	40d706b3          	sub	a3,a4,a3
   10756:	0286b733          	mulhu	a4,a3,s0
   1075a:	028686b3          	mul	a3,a3,s0
   1075e:	03f6d413          	srl	s0,a3,0x3f
   10762:	00171393          	sll	t2,a4,0x1
   10766:	43f75613          	sra	a2,a4,0x3f
   1076a:	00746733          	or	a4,s0,t2
   1076e:	8e59                	or	a2,a2,a4
   10770:	157d                	add	a0,a0,-1 # 11fff <_DYNAMIC+0x1ef>
   10772:	0686                	sll	a3,a3,0x1
   10774:	00f66463          	bltu	a2,a5,1077c <benchmark_body+0x248>
   10778:	8f1d                	sub	a4,a4,a5
   1077a:	0685                	add	a3,a3,1
   1077c:	f16d                	bnez	a0,1075e <benchmark_body+0x22a>
   1077e:	4505                	li	a0,1
   10780:	00e59863          	bne	a1,a4,10790 <benchmark_body+0x25c>
   10784:	02f28733          	mul	a4,t0,a5
   10788:	fff74713          	not	a4,a4
   1078c:	00e03533          	snez	a0,a4
   10790:	2885                	addw	a7,a7,1
   10792:	dd1317e3          	bne	t1,a7,10560 <benchmark_body+0x2c>
   10796:	7462                	ld	s0,56(sp)
   10798:	74c2                	ld	s1,48(sp)
   1079a:	7922                	ld	s2,40(sp)
   1079c:	7982                	ld	s3,32(sp)
   1079e:	6a62                	ld	s4,24(sp)
   107a0:	6121                	add	sp,sp,64
   107a2:	8082                	ret
   107a4:	4501                	li	a0,0
   107a6:	8082                	ret

00000000000107a8 <warm_caches>:
   107a8:	b371                	j	10534 <benchmark_body>

00000000000107aa <benchmark>:
   107aa:	1a700513          	li	a0,423
   107ae:	b359                	j	10534 <benchmark_body>

00000000000107b0 <initialise_benchmark>:
   107b0:	8201b603          	ld	a2,-2016(gp) # 12020 <__SDATA_BEGIN__>
   107b4:	8281b683          	ld	a3,-2008(gp) # 12028 <__SDATA_BEGIN__+0x8>
   107b8:	8301b703          	ld	a4,-2000(gp) # 12030 <__SDATA_BEGIN__+0x10>
   107bc:	82c1bc23          	sd	a2,-1992(gp) # 12038 <in_m>
   107c0:	84d1b023          	sd	a3,-1984(gp) # 12040 <in_b>
   107c4:	84e1b423          	sd	a4,-1976(gp) # 12048 <in_a>
   107c8:	8082                	ret

00000000000107ca <verify_benchmark>:
   107ca:	00153513          	seqz	a0,a0
   107ce:	8082                	ret

00000000000107d0 <initialise_board>:
   107d0:	8082                	ret

00000000000107d2 <start_trigger>:
   107d2:	8082                	ret

00000000000107d4 <stop_trigger>:
   107d4:	8082                	ret
