
/home/amusa/workbench/titancfi/benchmarks/embench-iot/bd/src/crc32/crc32:     file format elf64-littleriscv


Disassembly of section .plt:

0000000000010440 <_PROCEDURE_LINKAGE_TABLE_>:
   10440:	00002397          	auipc	t2,0x2
   10444:	41c30333          	sub	t1,t1,t3
   10448:	bc03be03          	ld	t3,-1088(t2) # 12000 <__TMC_END__>
   1044c:	fd430313          	add	t1,t1,-44
   10450:	bc038293          	add	t0,t2,-1088
   10454:	00135313          	srl	t1,t1,0x1
   10458:	0082b283          	ld	t0,8(t0)
   1045c:	000e0067          	jr	t3

0000000000010460 <__libc_start_main@plt>:
   10460:	00002e17          	auipc	t3,0x2
   10464:	bb0e3e03          	ld	t3,-1104(t3) # 12010 <__libc_start_main@GLIBC_2.34>
   10468:	000e0367          	jalr	t1,t3
   1046c:	00000013          	nop

Disassembly of section .text:

0000000000010470 <main>:
   10470:	1101                	add	sp,sp,-32
   10472:	ec06                	sd	ra,24(sp)
   10474:	144000ef          	jal	105b8 <initialise_board>
   10478:	128000ef          	jal	105a0 <initialise_benchmark>
   1047c:	4505                	li	a0,1
   1047e:	124000ef          	jal	105a2 <warm_caches>
   10482:	138000ef          	jal	105ba <start_trigger>
   10486:	11e000ef          	jal	105a4 <benchmark>
   1048a:	c62a                	sw	a0,12(sp)
   1048c:	130000ef          	jal	105bc <stop_trigger>
   10490:	4532                	lw	a0,12(sp)
   10492:	118000ef          	jal	105aa <verify_benchmark>
   10496:	60e2                	ld	ra,24(sp)
   10498:	00153513          	seqz	a0,a0
   1049c:	6105                	add	sp,sp,32
   1049e:	8082                	ret

00000000000104a0 <_start>:
   104a0:	022000ef          	jal	104c2 <load_gp>
   104a4:	87aa                	mv	a5,a0
   104a6:	00000517          	auipc	a0,0x0
   104aa:	fca50513          	add	a0,a0,-54 # 10470 <main>
   104ae:	6582                	ld	a1,0(sp)
   104b0:	0030                	add	a2,sp,8
   104b2:	ff017113          	and	sp,sp,-16
   104b6:	4681                	li	a3,0
   104b8:	4701                	li	a4,0
   104ba:	880a                	mv	a6,sp
   104bc:	fa5ff0ef          	jal	10460 <__libc_start_main@plt>
   104c0:	9002                	ebreak

00000000000104c2 <load_gp>:
   104c2:	00002197          	auipc	gp,0x2
   104c6:	33e18193          	add	gp,gp,830 # 12800 <__global_pointer$>
   104ca:	8082                	ret
	...

00000000000104ce <deregister_tm_clones>:
   104ce:	6549                	lui	a0,0x12
   104d0:	6749                	lui	a4,0x12
   104d2:	00050793          	mv	a5,a0
   104d6:	00070713          	mv	a4,a4
   104da:	00f70863          	beq	a4,a5,104ea <deregister_tm_clones+0x1c>
   104de:	00000793          	li	a5,0
   104e2:	c781                	beqz	a5,104ea <deregister_tm_clones+0x1c>
   104e4:	00050513          	mv	a0,a0
   104e8:	8782                	jr	a5
   104ea:	8082                	ret

00000000000104ec <register_tm_clones>:
   104ec:	6549                	lui	a0,0x12
   104ee:	00050793          	mv	a5,a0
   104f2:	6749                	lui	a4,0x12
   104f4:	00070593          	mv	a1,a4
   104f8:	8d9d                	sub	a1,a1,a5
   104fa:	4035d793          	sra	a5,a1,0x3
   104fe:	91fd                	srl	a1,a1,0x3f
   10500:	95be                	add	a1,a1,a5
   10502:	8585                	sra	a1,a1,0x1
   10504:	c599                	beqz	a1,10512 <register_tm_clones+0x26>
   10506:	00000793          	li	a5,0
   1050a:	c781                	beqz	a5,10512 <register_tm_clones+0x26>
   1050c:	00050513          	mv	a0,a0
   10510:	8782                	jr	a5
   10512:	8082                	ret

0000000000010514 <__do_global_dtors_aux>:
   10514:	1141                	add	sp,sp,-16
   10516:	e022                	sd	s0,0(sp)
   10518:	8281c783          	lbu	a5,-2008(gp) # 12028 <completed.0>
   1051c:	e406                	sd	ra,8(sp)
   1051e:	e791                	bnez	a5,1052a <__do_global_dtors_aux+0x16>
   10520:	fafff0ef          	jal	104ce <deregister_tm_clones>
   10524:	4785                	li	a5,1
   10526:	82f18423          	sb	a5,-2008(gp) # 12028 <completed.0>
   1052a:	60a2                	ld	ra,8(sp)
   1052c:	6402                	ld	s0,0(sp)
   1052e:	0141                	add	sp,sp,16
   10530:	8082                	ret

0000000000010532 <frame_dummy>:
   10532:	bf6d                	j	104ec <register_tm_clones>

0000000000010534 <benchmark_body>:
   10534:	7139                	add	sp,sp,-64
   10536:	fc06                	sd	ra,56(sp)
   10538:	f822                	sd	s0,48(sp)
   1053a:	f426                	sd	s1,40(sp)
   1053c:	f04a                	sd	s2,32(sp)
   1053e:	ec4e                	sd	s3,24(sp)
   10540:	e852                	sd	s4,16(sp)
   10542:	e456                	sd	s5,8(sp)
   10544:	04a05263          	blez	a0,10588 <benchmark_body+0x54>
   10548:	6941                	lui	s2,0x10
   1054a:	5afd                	li	s5,-1
   1054c:	8a2a                	mv	s4,a0
   1054e:	4981                	li	s3,0
   10550:	5f090913          	add	s2,s2,1520 # 105f0 <crc_32_tab>
   10554:	020ada93          	srl	s5,s5,0x20
   10558:	4501                	li	a0,0
   1055a:	088000ef          	jal	105e2 <srand_beebs>
   1055e:	40000493          	li	s1,1024
   10562:	8456                	mv	s0,s5
   10564:	05a000ef          	jal	105be <rand_beebs>
   10568:	00a447b3          	xor	a5,s0,a0
   1056c:	0ff7f793          	zext.b	a5,a5
   10570:	078e                	sll	a5,a5,0x3
   10572:	97ca                	add	a5,a5,s2
   10574:	639c                	ld	a5,0(a5)
   10576:	8021                	srl	s0,s0,0x8
   10578:	34fd                	addw	s1,s1,-1
   1057a:	8c3d                	xor	s0,s0,a5
   1057c:	f4e5                	bnez	s1,10564 <benchmark_body+0x30>
   1057e:	2985                	addw	s3,s3,1
   10580:	fd3a1ce3          	bne	s4,s3,10558 <benchmark_body+0x24>
   10584:	fff44413          	not	s0,s0
   10588:	1446                	sll	s0,s0,0x31
   1058a:	70e2                	ld	ra,56(sp)
   1058c:	03145513          	srl	a0,s0,0x31
   10590:	7442                	ld	s0,48(sp)
   10592:	74a2                	ld	s1,40(sp)
   10594:	7902                	ld	s2,32(sp)
   10596:	69e2                	ld	s3,24(sp)
   10598:	6a42                	ld	s4,16(sp)
   1059a:	6aa2                	ld	s5,8(sp)
   1059c:	6121                	add	sp,sp,64
   1059e:	8082                	ret

00000000000105a0 <initialise_benchmark>:
   105a0:	8082                	ret

00000000000105a2 <warm_caches>:
   105a2:	bf49                	j	10534 <benchmark_body>

00000000000105a4 <benchmark>:
   105a4:	0aa00513          	li	a0,170
   105a8:	b771                	j	10534 <benchmark_body>

00000000000105aa <verify_benchmark>:
   105aa:	678d                	lui	a5,0x3
   105ac:	ca978793          	add	a5,a5,-855 # 2ca9 <__abi_tag-0xd5eb>
   105b0:	8d1d                	sub	a0,a0,a5
   105b2:	00153513          	seqz	a0,a0
   105b6:	8082                	ret

00000000000105b8 <initialise_board>:
   105b8:	8082                	ret

00000000000105ba <start_trigger>:
   105ba:	8082                	ret

00000000000105bc <stop_trigger>:
   105bc:	8082                	ret

00000000000105be <rand_beebs>:
   105be:	8201b503          	ld	a0,-2016(gp) # 12020 <seed>
   105c2:	41c657b7          	lui	a5,0x41c65
   105c6:	e6d78793          	add	a5,a5,-403 # 41c64e6d <__global_pointer$+0x41c5266d>
   105ca:	02f50533          	mul	a0,a0,a5
   105ce:	678d                	lui	a5,0x3
   105d0:	03978793          	add	a5,a5,57 # 3039 <__abi_tag-0xd25b>
   105d4:	953e                	add	a0,a0,a5
   105d6:	1506                	sll	a0,a0,0x21
   105d8:	9105                	srl	a0,a0,0x21
   105da:	82a1b023          	sd	a0,-2016(gp) # 12020 <seed>
   105de:	8141                	srl	a0,a0,0x10
   105e0:	8082                	ret

00000000000105e2 <srand_beebs>:
   105e2:	1502                	sll	a0,a0,0x20
   105e4:	9101                	srl	a0,a0,0x20
   105e6:	82a1b023          	sd	a0,-2016(gp) # 12020 <seed>
   105ea:	8082                	ret
