
/home/amusa/workbench/titancfi/benchmarks/embench-iot/bd/src/cubic/cubic:     file format elf64-littleriscv


Disassembly of section .plt:

00000000000105c0 <_PROCEDURE_LINKAGE_TABLE_>:
   105c0:	00005397          	auipc	t2,0x5
   105c4:	41c30333          	sub	t1,t1,t3
   105c8:	a403be03          	ld	t3,-1472(t2) # 15000 <__TMC_END__>
   105cc:	fd430313          	add	t1,t1,-44
   105d0:	a4038293          	add	t0,t2,-1472
   105d4:	00135313          	srl	t1,t1,0x1
   105d8:	0082b283          	ld	t0,8(t0)
   105dc:	000e0067          	jr	t3 # 1a000 <__global_pointer$+0x4800>

00000000000105e0 <__libc_start_main@plt>:
   105e0:	00005e17          	auipc	t3,0x5
   105e4:	a30e3e03          	ld	t3,-1488(t3) # 15010 <__libc_start_main@GLIBC_2.34>
   105e8:	000e0367          	jalr	t1,t3
   105ec:	00000013          	nop

00000000000105f0 <sqrt@plt>:
   105f0:	00005e17          	auipc	t3,0x5
   105f4:	a28e3e03          	ld	t3,-1496(t3) # 15018 <sqrt@GLIBC_2.27>
   105f8:	000e0367          	jalr	t1,t3
   105fc:	00000013          	nop

0000000000010600 <pow@plt>:
   10600:	00005e17          	auipc	t3,0x5
   10604:	a20e3e03          	ld	t3,-1504(t3) # 15020 <pow@GLIBC_2.27>
   10608:	000e0367          	jalr	t1,t3
   1060c:	00000013          	nop

0000000000010610 <acos@plt>:
   10610:	00005e17          	auipc	t3,0x5
   10614:	a18e3e03          	ld	t3,-1512(t3) # 15028 <acos@GLIBC_2.27>
   10618:	000e0367          	jalr	t1,t3
   1061c:	00000013          	nop

0000000000010620 <cos@plt>:
   10620:	00005e17          	auipc	t3,0x5
   10624:	a10e3e03          	ld	t3,-1520(t3) # 15030 <cos@GLIBC_2.27>
   10628:	000e0367          	jalr	t1,t3
   1062c:	00000013          	nop

0000000000010630 <memset@plt>:
   10630:	00005e17          	auipc	t3,0x5
   10634:	a08e3e03          	ld	t3,-1528(t3) # 15038 <memset@GLIBC_2.27>
   10638:	000e0367          	jalr	t1,t3
   1063c:	00000013          	nop

Disassembly of section .text:

0000000000010640 <main>:
   10640:	1101                	add	sp,sp,-32
   10642:	ec06                	sd	ra,24(sp)
   10644:	6c4000ef          	jal	10d08 <initialise_board>
   10648:	346000ef          	jal	1098e <initialise_benchmark>
   1064c:	4505                	li	a0,1
   1064e:	342000ef          	jal	10990 <warm_caches>
   10652:	6b8000ef          	jal	10d0a <start_trigger>
   10656:	33c000ef          	jal	10992 <benchmark>
   1065a:	c62a                	sw	a0,12(sp)
   1065c:	6b0000ef          	jal	10d0c <stop_trigger>
   10660:	4532                	lw	a0,12(sp)
   10662:	2be000ef          	jal	10920 <verify_benchmark>
   10666:	60e2                	ld	ra,24(sp)
   10668:	00153513          	seqz	a0,a0
   1066c:	6105                	add	sp,sp,32
   1066e:	8082                	ret

0000000000010670 <_start>:
   10670:	022000ef          	jal	10692 <load_gp>
   10674:	87aa                	mv	a5,a0
   10676:	00000517          	auipc	a0,0x0
   1067a:	fca50513          	add	a0,a0,-54 # 10640 <main>
   1067e:	6582                	ld	a1,0(sp)
   10680:	0030                	add	a2,sp,8
   10682:	ff017113          	and	sp,sp,-16
   10686:	4681                	li	a3,0
   10688:	4701                	li	a4,0
   1068a:	880a                	mv	a6,sp
   1068c:	f55ff0ef          	jal	105e0 <__libc_start_main@plt>
   10690:	9002                	ebreak

0000000000010692 <load_gp>:
   10692:	00005197          	auipc	gp,0x5
   10696:	16e18193          	add	gp,gp,366 # 15800 <__global_pointer$>
   1069a:	8082                	ret
	...

000000000001069e <deregister_tm_clones>:
   1069e:	6555                	lui	a0,0x15
   106a0:	6755                	lui	a4,0x15
   106a2:	00050793          	mv	a5,a0
   106a6:	00070713          	mv	a4,a4
   106aa:	00f70863          	beq	a4,a5,106ba <deregister_tm_clones+0x1c>
   106ae:	00000793          	li	a5,0
   106b2:	c781                	beqz	a5,106ba <deregister_tm_clones+0x1c>
   106b4:	00050513          	mv	a0,a0
   106b8:	8782                	jr	a5
   106ba:	8082                	ret

00000000000106bc <register_tm_clones>:
   106bc:	6555                	lui	a0,0x15
   106be:	00050793          	mv	a5,a0
   106c2:	6755                	lui	a4,0x15
   106c4:	00070593          	mv	a1,a4
   106c8:	8d9d                	sub	a1,a1,a5
   106ca:	4035d793          	sra	a5,a1,0x3
   106ce:	91fd                	srl	a1,a1,0x3f
   106d0:	95be                	add	a1,a1,a5
   106d2:	8585                	sra	a1,a1,0x1
   106d4:	c599                	beqz	a1,106e2 <register_tm_clones+0x26>
   106d6:	00000793          	li	a5,0
   106da:	c781                	beqz	a5,106e2 <register_tm_clones+0x26>
   106dc:	00050513          	mv	a0,a0
   106e0:	8782                	jr	a5
   106e2:	8082                	ret

00000000000106e4 <__do_global_dtors_aux>:
   106e4:	1141                	add	sp,sp,-16
   106e6:	e022                	sd	s0,0(sp)
   106e8:	9201c783          	lbu	a5,-1760(gp) # 15120 <completed.0>
   106ec:	e406                	sd	ra,8(sp)
   106ee:	e791                	bnez	a5,106fa <__do_global_dtors_aux+0x16>
   106f0:	fafff0ef          	jal	1069e <deregister_tm_clones>
   106f4:	4785                	li	a5,1
   106f6:	92f18023          	sb	a5,-1760(gp) # 15120 <completed.0>
   106fa:	60a2                	ld	ra,8(sp)
   106fc:	6402                	ld	s0,0(sp)
   106fe:	0141                	add	sp,sp,16
   10700:	8082                	ret

0000000000010702 <frame_dummy>:
   10702:	bf6d                	j	106bc <register_tm_clones>

0000000000010704 <benchmark_body>:
   10704:	20a05c63          	blez	a0,1091c <benchmark_body+0x218>
   10708:	d7010113          	add	sp,sp,-656
   1070c:	b3de                	fsd	fs7,480(sp)
   1070e:	8601bb87          	fld	fs7,-1952(gp) # 15060 <__SDATA_BEGIN__+0x10>
   10712:	a3ee                	fsd	fs11,448(sp)
   10714:	8681bd87          	fld	fs11,-1944(gp) # 15068 <__SDATA_BEGIN__+0x18>
   10718:	a7ea                	fsd	fs10,456(sp)
   1071a:	8701bd07          	fld	fs10,-1936(gp) # 15070 <__SDATA_BEGIN__+0x20>
   1071e:	21213427          	fsd	fs2,520(sp)
   10722:	8581b907          	fld	fs2,-1960(gp) # 15058 <__SDATA_BEGIN__+0x8>
   10726:	abe6                	fsd	fs9,464(sp)
   10728:	8781bc87          	fld	fs9,-1928(gp) # 15078 <__SDATA_BEGIN__+0x28>
   1072c:	afe2                	fsd	fs8,472(sp)
   1072e:	8801bc07          	fld	fs8,-1920(gp) # 15080 <__SDATA_BEGIN__+0x30>
   10732:	8881b787          	fld	fa5,-1912(gp) # 15088 <__SDATA_BEGIN__+0x38>
   10736:	27213823          	sd	s2,624(sp)
   1073a:	27313423          	sd	s3,616(sp)
   1073e:	27413023          	sd	s4,608(sp)
   10742:	25513c23          	sd	s5,600(sp)
   10746:	25713423          	sd	s7,584(sp)
   1074a:	25813023          	sd	s8,576(sp)
   1074e:	23913c23          	sd	s9,568(sp)
   10752:	23a13823          	sd	s10,560(sp)
   10756:	23b13423          	sd	s11,552(sp)
   1075a:	28113423          	sd	ra,648(sp)
   1075e:	28813023          	sd	s0,640(sp)
   10762:	26913c23          	sd	s1,632(sp)
   10766:	25613823          	sd	s6,592(sp)
   1076a:	20813c27          	fsd	fs0,536(sp)
   1076e:	20913827          	fsd	fs1,528(sp)
   10772:	21313027          	fsd	fs3,512(sp)
   10776:	bfd2                	fsd	fs4,504(sp)
   10778:	bbd6                	fsd	fs5,496(sp)
   1077a:	b7da                	fsd	fs6,488(sp)
   1077c:	a43e                	fsd	fa5,8(sp)
   1077e:	8901b787          	fld	fa5,-1904(gp) # 15090 <__SDATA_BEGIN__+0x40>
   10782:	a83e                	fsd	fa5,16(sp)
   10784:	8981b787          	fld	fa5,-1896(gp) # 15098 <__SDATA_BEGIN__+0x48>
   10788:	8aaa                	mv	s5,a0
   1078a:	ac3e                	fsd	fa5,24(sp)
   1078c:	8a01b787          	fld	fa5,-1888(gp) # 150a0 <__SDATA_BEGIN__+0x50>
   10790:	4981                	li	s3,0
   10792:	b03e                	fsd	fa5,32(sp)
   10794:	8a81b787          	fld	fa5,-1880(gp) # 150a8 <__SDATA_BEGIN__+0x58>
   10798:	92818913          	add	s2,gp,-1752 # 15128 <res0>
   1079c:	b43e                	fsd	fa5,40(sp)
   1079e:	18000613          	li	a2,384
   107a2:	4581                	li	a1,0
   107a4:	0088                	add	a0,sp,64
   107a6:	e8bff0ef          	jal	10630 <memset@plt>
   107aa:	237b86d3          	fmv.d	fa3,fs7
   107ae:	23bd8653          	fmv.d	fa2,fs11
   107b2:	23ad05d3          	fmv.d	fa1,fs10
   107b6:	23290553          	fmv.d	fa0,fs2
   107ba:	008c                	add	a1,sp,64
   107bc:	1868                	add	a0,sp,60
   107be:	1d8000ef          	jal	10996 <SolveCubic>
   107c2:	57f2                	lw	a5,60(sp)
   107c4:	237b86d3          	fmv.d	fa3,fs7
   107c8:	239c8653          	fmv.d	fa2,fs9
   107cc:	90f1ae23          	sw	a5,-1764(gp) # 1511c <soln_cnt0>
   107d0:	6786                	ld	a5,64(sp)
   107d2:	238c05d3          	fmv.d	fa1,fs8
   107d6:	23290553          	fmv.d	fa0,fs2
   107da:	00f93023          	sd	a5,0(s2)
   107de:	67a6                	ld	a5,72(sp)
   107e0:	008c                	add	a1,sp,64
   107e2:	1868                	add	a0,sp,60
   107e4:	00f93423          	sd	a5,8(s2)
   107e8:	67c6                	ld	a5,80(sp)
   107ea:	232904d3          	fmv.d	fs1,fs2
   107ee:	4489                	li	s1,2
   107f0:	00f93823          	sd	a5,16(s2)
   107f4:	1a2000ef          	jal	10996 <SolveCubic>
   107f8:	57f2                	lw	a5,60(sp)
   107fa:	2786                	fld	fa5,64(sp)
   107fc:	26a2                	fld	fa3,8(sp)
   107fe:	2642                	fld	fa2,16(sp)
   10800:	25e2                	fld	fa1,24(sp)
   10802:	23290553          	fmv.d	fa0,fs2
   10806:	008c                	add	a1,sp,64
   10808:	1868                	add	a0,sp,60
   1080a:	90f1ac23          	sw	a5,-1768(gp) # 15118 <soln_cnt1>
   1080e:	90f1b827          	fsd	fa5,-1776(gp) # 15110 <res1>
   10812:	184000ef          	jal	10996 <SolveCubic>
   10816:	3682                	fld	fa3,32(sp)
   10818:	23290653          	fmv.d	fa2,fs2
   1081c:	35a2                	fld	fa1,40(sp)
   1081e:	23290553          	fmv.d	fa0,fs2
   10822:	008c                	add	a1,sp,64
   10824:	1868                	add	a0,sp,60
   10826:	170000ef          	jal	10996 <SolveCubic>
   1082a:	8c01ba07          	fld	fs4,-1856(gp) # 150c0 <__SDATA_BEGIN__+0x70>
   1082e:	8b01bb07          	fld	fs6,-1872(gp) # 150b0 <__SDATA_BEGIN__+0x60>
   10832:	8b81ba87          	fld	fs5,-1864(gp) # 150b8 <__SDATA_BEGIN__+0x68>
   10836:	8c81b987          	fld	fs3,-1848(gp) # 150c8 <__SDATA_BEGIN__+0x78>
   1083a:	4405                	li	s0,1
   1083c:	8501b407          	fld	fs0,-1968(gp) # 15050 <__SDATA_BEGIN__>
   10840:	4b09                	li	s6,2
   10842:	228405d3          	fmv.d	fa1,fs0
   10846:	236b06d3          	fmv.d	fa3,fs6
   1084a:	235a8653          	fmv.d	fa2,fs5
   1084e:	22948553          	fmv.d	fa0,fs1
   10852:	008c                	add	a1,sp,64
   10854:	1868                	add	a0,sp,60
   10856:	140000ef          	jal	10996 <SolveCubic>
   1085a:	228405d3          	fmv.d	fa1,fs0
   1085e:	234a06d3          	fmv.d	fa3,fs4
   10862:	235a8653          	fmv.d	fa2,fs5
   10866:	22948553          	fmv.d	fa0,fs1
   1086a:	008c                	add	a1,sp,64
   1086c:	1868                	add	a0,sp,60
   1086e:	128000ef          	jal	10996 <SolveCubic>
   10872:	228405d3          	fmv.d	fa1,fs0
   10876:	236b06d3          	fmv.d	fa3,fs6
   1087a:	23398653          	fmv.d	fa2,fs3
   1087e:	22948553          	fmv.d	fa0,fs1
   10882:	008c                	add	a1,sp,64
   10884:	1868                	add	a0,sp,60
   10886:	110000ef          	jal	10996 <SolveCubic>
   1088a:	228405d3          	fmv.d	fa1,fs0
   1088e:	234a06d3          	fmv.d	fa3,fs4
   10892:	23398653          	fmv.d	fa2,fs3
   10896:	22948553          	fmv.d	fa0,fs1
   1089a:	008c                	add	a1,sp,64
   1089c:	1868                	add	a0,sp,60
   1089e:	0f8000ef          	jal	10996 <SolveCubic>
   108a2:	0b247453          	fsub.d	fs0,fs0,fs2
   108a6:	008b0463          	beq	s6,s0,108ae <benchmark_body+0x1aa>
   108aa:	4b05                	li	s6,1
   108ac:	bf59                	j	10842 <benchmark_body+0x13e>
   108ae:	0324f4d3          	fadd.d	fs1,fs1,fs2
   108b2:	00848463          	beq	s1,s0,108ba <benchmark_body+0x1b6>
   108b6:	4485                	li	s1,1
   108b8:	b751                	j	1083c <benchmark_body+0x138>
   108ba:	2985                	addw	s3,s3,1
   108bc:	ef3a91e3          	bne	s5,s3,1079e <benchmark_body+0x9a>
   108c0:	28813083          	ld	ra,648(sp)
   108c4:	28013403          	ld	s0,640(sp)
   108c8:	27813483          	ld	s1,632(sp)
   108cc:	27013903          	ld	s2,624(sp)
   108d0:	26813983          	ld	s3,616(sp)
   108d4:	26013a03          	ld	s4,608(sp)
   108d8:	25813a83          	ld	s5,600(sp)
   108dc:	25013b03          	ld	s6,592(sp)
   108e0:	24813b83          	ld	s7,584(sp)
   108e4:	24013c03          	ld	s8,576(sp)
   108e8:	23813c83          	ld	s9,568(sp)
   108ec:	23013d03          	ld	s10,560(sp)
   108f0:	22813d83          	ld	s11,552(sp)
   108f4:	21813407          	fld	fs0,536(sp)
   108f8:	21013487          	fld	fs1,528(sp)
   108fc:	20813907          	fld	fs2,520(sp)
   10900:	20013987          	fld	fs3,512(sp)
   10904:	3a7e                	fld	fs4,504(sp)
   10906:	3ade                	fld	fs5,496(sp)
   10908:	3b3e                	fld	fs6,488(sp)
   1090a:	3b9e                	fld	fs7,480(sp)
   1090c:	2c7e                	fld	fs8,472(sp)
   1090e:	2cde                	fld	fs9,464(sp)
   10910:	2d3e                	fld	fs10,456(sp)
   10912:	2d9e                	fld	fs11,448(sp)
   10914:	4501                	li	a0,0
   10916:	29010113          	add	sp,sp,656
   1091a:	8082                	ret
   1091c:	4501                	li	a0,0
   1091e:	8082                	ret

0000000000010920 <verify_benchmark>:
   10920:	91c1a703          	lw	a4,-1764(gp) # 1511c <soln_cnt0>
   10924:	478d                	li	a5,3
   10926:	4501                	li	a0,0
   10928:	00f70363          	beq	a4,a5,1092e <verify_benchmark+0xe>
   1092c:	8082                	ret
   1092e:	8d81b707          	fld	fa4,-1832(gp) # 150d8 <__SDATA_BEGIN__+0x88>
   10932:	92818793          	add	a5,gp,-1752 # 15128 <res0>
   10936:	8d01b787          	fld	fa5,-1840(gp) # 150d0 <__SDATA_BEGIN__+0x80>
   1093a:	2394                	fld	fa3,0(a5)
   1093c:	0ad7f7d3          	fsub.d	fa5,fa5,fa3
   10940:	22f7a7d3          	fabs.d	fa5,fa5
   10944:	a2e79753          	flt.d	a4,fa5,fa4
   10948:	d375                	beqz	a4,1092c <verify_benchmark+0xc>
   1094a:	8e01b787          	fld	fa5,-1824(gp) # 150e0 <__SDATA_BEGIN__+0x90>
   1094e:	2794                	fld	fa3,8(a5)
   10950:	0ad7f7d3          	fsub.d	fa5,fa5,fa3
   10954:	22f7a7d3          	fabs.d	fa5,fa5
   10958:	a2e79753          	flt.d	a4,fa5,fa4
   1095c:	db61                	beqz	a4,1092c <verify_benchmark+0xc>
   1095e:	2b9c                	fld	fa5,16(a5)
   10960:	8e81b687          	fld	fa3,-1816(gp) # 150e8 <__SDATA_BEGIN__+0x98>
   10964:	0af6f7d3          	fsub.d	fa5,fa3,fa5
   10968:	22f7a7d3          	fabs.d	fa5,fa5
   1096c:	a2e797d3          	flt.d	a5,fa5,fa4
   10970:	dfd5                	beqz	a5,1092c <verify_benchmark+0xc>
   10972:	9181a703          	lw	a4,-1768(gp) # 15118 <soln_cnt1>
   10976:	4785                	li	a5,1
   10978:	faf71ae3          	bne	a4,a5,1092c <verify_benchmark+0xc>
   1097c:	9101b787          	fld	fa5,-1776(gp) # 15110 <res1>
   10980:	0af6f7d3          	fsub.d	fa5,fa3,fa5
   10984:	22f7a7d3          	fabs.d	fa5,fa5
   10988:	a2e79553          	flt.d	a0,fa5,fa4
   1098c:	8082                	ret

000000000001098e <initialise_benchmark>:
   1098e:	8082                	ret

0000000000010990 <warm_caches>:
   10990:	bb95                	j	10704 <benchmark_body>

0000000000010992 <benchmark>:
   10992:	4529                	li	a0,10
   10994:	bb85                	j	10704 <benchmark_body>

0000000000010996 <SolveCubic>:
   10996:	7175                	add	sp,sp,-144
   10998:	b026                	fsd	fs1,32(sp)
   1099a:	1aa5f4d3          	fdiv.d	fs1,fa1,fa0
   1099e:	b422                	fsd	fs0,40(sp)
   109a0:	22a50453          	fmv.d	fs0,fa0
   109a4:	a84e                	fsd	fs3,16(sp)
   109a6:	22c609d3          	fmv.d	fs3,fa2
   109aa:	e506                	sd	ra,136(sp)
   109ac:	e122                	sd	s0,128(sp)
   109ae:	fca6                	sd	s1,120(sp)
   109b0:	f8ca                	sd	s2,112(sp)
   109b2:	f4ce                	sd	s3,104(sp)
   109b4:	f0d2                	sd	s4,96(sp)
   109b6:	ecd6                	sd	s5,88(sp)
   109b8:	e8da                	sd	s6,80(sp)
   109ba:	e4de                	sd	s7,72(sp)
   109bc:	e0e2                	sd	s8,64(sp)
   109be:	fc66                	sd	s9,56(sp)
   109c0:	f86a                	sd	s10,48(sp)
   109c2:	ac4a                	fsd	fs2,24(sp)
   109c4:	a452                	fsd	fs4,8(sp)
   109c6:	22d68953          	fmv.d	fs2,fa3
   109ca:	22948553          	fmv.d	fa0,fs1
   109ce:	a056                	fsd	fs5,0(sp)
   109d0:	8d2a                	mv	s10,a0
   109d2:	8b2e                	mv	s6,a1
   109d4:	720020ef          	jal	130f4 <__extenddftf2>
   109d8:	1a89f553          	fdiv.d	fa0,fs3,fs0
   109dc:	84aa                	mv	s1,a0
   109de:	842e                	mv	s0,a1
   109e0:	6bcd                	lui	s7,0x13
   109e2:	6c4d                	lui	s8,0x13
   109e4:	f2000a53          	fmv.d.x	fs4,zero
   109e8:	70c020ef          	jal	130f4 <__extenddftf2>
   109ec:	8aaa                	mv	s5,a0
   109ee:	8a2e                	mv	s4,a1
   109f0:	8626                	mv	a2,s1
   109f2:	86a2                	mv	a3,s0
   109f4:	8526                	mv	a0,s1
   109f6:	85a2                	mv	a1,s0
   109f8:	568010ef          	jal	11f60 <__multf3>
   109fc:	5b8bb683          	ld	a3,1464(s7) # 135b8 <__clzdi2+0x68>
   10a00:	89aa                	mv	s3,a0
   10a02:	892e                	mv	s2,a1
   10a04:	4601                	li	a2,0
   10a06:	8556                	mv	a0,s5
   10a08:	85d2                	mv	a1,s4
   10a0a:	556010ef          	jal	11f60 <__multf3>
   10a0e:	862a                	mv	a2,a0
   10a10:	86ae                	mv	a3,a1
   10a12:	854e                	mv	a0,s3
   10a14:	85ca                	mv	a1,s2
   10a16:	455010ef          	jal	1266a <__subtf3>
   10a1a:	5c8c3683          	ld	a3,1480(s8) # 135c8 <__clzdi2+0x78>
   10a1e:	4601                	li	a2,0
   10a20:	517000ef          	jal	11736 <__divtf3>
   10a24:	89aa                	mv	s3,a0
   10a26:	892e                	mv	s2,a1
   10a28:	8626                	mv	a2,s1
   10a2a:	86a2                	mv	a3,s0
   10a2c:	8526                	mv	a0,s1
   10a2e:	85a2                	mv	a1,s0
   10a30:	2de000ef          	jal	10d0e <__addtf3>
   10a34:	8626                	mv	a2,s1
   10a36:	86a2                	mv	a3,s0
   10a38:	528010ef          	jal	11f60 <__multf3>
   10a3c:	8626                	mv	a2,s1
   10a3e:	86a2                	mv	a3,s0
   10a40:	520010ef          	jal	11f60 <__multf3>
   10a44:	5c8c3683          	ld	a3,1480(s8)
   10a48:	8caa                	mv	s9,a0
   10a4a:	8c2e                	mv	s8,a1
   10a4c:	4601                	li	a2,0
   10a4e:	8526                	mv	a0,s1
   10a50:	85a2                	mv	a1,s0
   10a52:	50e010ef          	jal	11f60 <__multf3>
   10a56:	8656                	mv	a2,s5
   10a58:	86d2                	mv	a3,s4
   10a5a:	506010ef          	jal	11f60 <__multf3>
   10a5e:	862a                	mv	a2,a0
   10a60:	86ae                	mv	a3,a1
   10a62:	8566                	mv	a0,s9
   10a64:	85e2                	mv	a1,s8
   10a66:	405010ef          	jal	1266a <__subtf3>
   10a6a:	1a897553          	fdiv.d	fa0,fs2,fs0
   10a6e:	8aaa                	mv	s5,a0
   10a70:	8a2e                	mv	s4,a1
   10a72:	682020ef          	jal	130f4 <__extenddftf2>
   10a76:	67cd                	lui	a5,0x13
   10a78:	5d87b683          	ld	a3,1496(a5) # 135d8 <__clzdi2+0x88>
   10a7c:	4601                	li	a2,0
   10a7e:	4e2010ef          	jal	11f60 <__multf3>
   10a82:	862a                	mv	a2,a0
   10a84:	86ae                	mv	a3,a1
   10a86:	8556                	mv	a0,s5
   10a88:	85d2                	mv	a1,s4
   10a8a:	284000ef          	jal	10d0e <__addtf3>
   10a8e:	67cd                	lui	a5,0x13
   10a90:	5e87b683          	ld	a3,1512(a5) # 135e8 <__clzdi2+0x98>
   10a94:	4601                	li	a2,0
   10a96:	4a1000ef          	jal	11736 <__divtf3>
   10a9a:	8aaa                	mv	s5,a0
   10a9c:	8a2e                	mv	s4,a1
   10a9e:	864e                	mv	a2,s3
   10aa0:	86ca                	mv	a3,s2
   10aa2:	854e                	mv	a0,s3
   10aa4:	85ca                	mv	a1,s2
   10aa6:	4ba010ef          	jal	11f60 <__multf3>
   10aaa:	864e                	mv	a2,s3
   10aac:	86ca                	mv	a3,s2
   10aae:	4b2010ef          	jal	11f60 <__multf3>
   10ab2:	8caa                	mv	s9,a0
   10ab4:	8c2e                	mv	s8,a1
   10ab6:	8656                	mv	a2,s5
   10ab8:	86d2                	mv	a3,s4
   10aba:	8556                	mv	a0,s5
   10abc:	85d2                	mv	a1,s4
   10abe:	4a2010ef          	jal	11f60 <__multf3>
   10ac2:	8666                	mv	a2,s9
   10ac4:	86e2                	mv	a3,s8
   10ac6:	3a5010ef          	jal	1266a <__subtf3>
   10aca:	708020ef          	jal	131d2 <__trunctfdf2>
   10ace:	a34507d3          	fle.d	a5,fa0,fs4
   10ad2:	ebd1                	bnez	a5,10b66 <SolveCubic+0x1d0>
   10ad4:	00102773          	frflags	a4
   10ad8:	a34517d3          	flt.d	a5,fa0,fs4
   10adc:	00171073          	fsflags	a4
   10ae0:	4705                	li	a4,1
   10ae2:	00ed2023          	sw	a4,0(s10) # 19000 <__global_pointer$+0x3800>
   10ae6:	16079b63          	bnez	a5,10c5c <SolveCubic+0x2c6>
   10aea:	5a057453          	fsqrt.d	fs0,fa0
   10aee:	8556                	mv	a0,s5
   10af0:	85d2                	mv	a1,s4
   10af2:	6e0020ef          	jal	131d2 <__trunctfdf2>
   10af6:	22a52553          	fabs.d	fa0,fa0
   10afa:	9081b587          	fld	fa1,-1784(gp) # 15108 <__SDATA_BEGIN__+0xb8>
   10afe:	02857553          	fadd.d	fa0,fa0,fs0
   10b02:	affff0ef          	jal	10600 <pow@plt>
   10b06:	22a50953          	fmv.d	fs2,fa0
   10b0a:	854e                	mv	a0,s3
   10b0c:	85ca                	mv	a1,s2
   10b0e:	6c4020ef          	jal	131d2 <__trunctfdf2>
   10b12:	4601                	li	a2,0
   10b14:	4681                	li	a3,0
   10b16:	8556                	mv	a0,s5
   10b18:	85d2                	mv	a1,s4
   10b1a:	1b257453          	fdiv.d	fs0,fa0,fs2
   10b1e:	03247453          	fadd.d	fs0,fs0,fs2
   10b22:	37e010ef          	jal	11ea0 <__letf2>
   10b26:	00054463          	bltz	a0,10b2e <SolveCubic+0x198>
   10b2a:	22841453          	fneg.d	fs0,fs0
   10b2e:	8f01b787          	fld	fa5,-1808(gp) # 150f0 <__SDATA_BEGIN__+0xa0>
   10b32:	1af4f4d3          	fdiv.d	fs1,fs1,fa5
   10b36:	0a947453          	fsub.d	fs0,fs0,fs1
   10b3a:	008b3027          	fsd	fs0,0(s6)
   10b3e:	60aa                	ld	ra,136(sp)
   10b40:	640a                	ld	s0,128(sp)
   10b42:	74e6                	ld	s1,120(sp)
   10b44:	7946                	ld	s2,112(sp)
   10b46:	79a6                	ld	s3,104(sp)
   10b48:	7a06                	ld	s4,96(sp)
   10b4a:	6ae6                	ld	s5,88(sp)
   10b4c:	6b46                	ld	s6,80(sp)
   10b4e:	6ba6                	ld	s7,72(sp)
   10b50:	6c06                	ld	s8,64(sp)
   10b52:	7ce2                	ld	s9,56(sp)
   10b54:	7d42                	ld	s10,48(sp)
   10b56:	3422                	fld	fs0,40(sp)
   10b58:	3482                	fld	fs1,32(sp)
   10b5a:	2962                	fld	fs2,24(sp)
   10b5c:	29c2                	fld	fs3,16(sp)
   10b5e:	2a22                	fld	fs4,8(sp)
   10b60:	2a82                	fld	fs5,0(sp)
   10b62:	6149                	add	sp,sp,144
   10b64:	8082                	ret
   10b66:	478d                	li	a5,3
   10b68:	00fd2023          	sw	a5,0(s10)
   10b6c:	8556                	mv	a0,s5
   10b6e:	85d2                	mv	a1,s4
   10b70:	662020ef          	jal	131d2 <__trunctfdf2>
   10b74:	8566                	mv	a0,s9
   10b76:	85e2                	mv	a1,s8
   10b78:	22a50453          	fmv.d	fs0,fa0
   10b7c:	656020ef          	jal	131d2 <__trunctfdf2>
   10b80:	00102773          	frflags	a4
   10b84:	a34517d3          	flt.d	a5,fa0,fs4
   10b88:	00171073          	fsflags	a4
   10b8c:	0c079d63          	bnez	a5,10c66 <SolveCubic+0x2d0>
   10b90:	5a0577d3          	fsqrt.d	fa5,fa0
   10b94:	1af47553          	fdiv.d	fa0,fs0,fa5
   10b98:	a79ff0ef          	jal	10610 <acos@plt>
   10b9c:	854e                	mv	a0,s3
   10b9e:	85ca                	mv	a1,s2
   10ba0:	22a504d3          	fmv.d	fs1,fa0
   10ba4:	62e020ef          	jal	131d2 <__trunctfdf2>
   10ba8:	f20007d3          	fmv.d.x	fa5,zero
   10bac:	22a50453          	fmv.d	fs0,fa0
   10bb0:	00102773          	frflags	a4
   10bb4:	a2f517d3          	flt.d	a5,fa0,fa5
   10bb8:	00171073          	fsflags	a4
   10bbc:	0a079a63          	bnez	a5,10c70 <SolveCubic+0x2da>
   10bc0:	5a057453          	fsqrt.d	fs0,fa0
   10bc4:	8f01b987          	fld	fs3,-1808(gp) # 150f0 <__SDATA_BEGIN__+0xa0>
   10bc8:	8c01b787          	fld	fa5,-1856(gp) # 150c0 <__SDATA_BEGIN__+0x70>
   10bcc:	1b34f553          	fdiv.d	fa0,fs1,fs3
   10bd0:	12f47453          	fmul.d	fs0,fs0,fa5
   10bd4:	a4dff0ef          	jal	10620 <cos@plt>
   10bd8:	5b8bb683          	ld	a3,1464(s7)
   10bdc:	22a50953          	fmv.d	fs2,fa0
   10be0:	4601                	li	a2,0
   10be2:	8526                	mv	a0,s1
   10be4:	85a2                	mv	a1,s0
   10be6:	351000ef          	jal	11736 <__divtf3>
   10bea:	13247553          	fmul.d	fa0,fs0,fs2
   10bee:	84aa                	mv	s1,a0
   10bf0:	842e                	mv	s0,a1
   10bf2:	502020ef          	jal	130f4 <__extenddftf2>
   10bf6:	8626                	mv	a2,s1
   10bf8:	86a2                	mv	a3,s0
   10bfa:	271010ef          	jal	1266a <__subtf3>
   10bfe:	5d4020ef          	jal	131d2 <__trunctfdf2>
   10c02:	00ab3027          	fsd	fa0,0(s6)
   10c06:	8f81b507          	fld	fa0,-1800(gp) # 150f8 <__SDATA_BEGIN__+0xa8>
   10c0a:	02a4f553          	fadd.d	fa0,fs1,fa0
   10c0e:	1b357553          	fdiv.d	fa0,fa0,fs3
   10c12:	a0fff0ef          	jal	10620 <cos@plt>
   10c16:	12857553          	fmul.d	fa0,fa0,fs0
   10c1a:	4da020ef          	jal	130f4 <__extenddftf2>
   10c1e:	8626                	mv	a2,s1
   10c20:	86a2                	mv	a3,s0
   10c22:	249010ef          	jal	1266a <__subtf3>
   10c26:	5ac020ef          	jal	131d2 <__trunctfdf2>
   10c2a:	00ab3427          	fsd	fa0,8(s6)
   10c2e:	9001b787          	fld	fa5,-1792(gp) # 15100 <__SDATA_BEGIN__+0xb0>
   10c32:	8f01b507          	fld	fa0,-1808(gp) # 150f0 <__SDATA_BEGIN__+0xa0>
   10c36:	02f4f7d3          	fadd.d	fa5,fs1,fa5
   10c3a:	1aa7f553          	fdiv.d	fa0,fa5,fa0
   10c3e:	9e3ff0ef          	jal	10620 <cos@plt>
   10c42:	12857553          	fmul.d	fa0,fa0,fs0
   10c46:	4ae020ef          	jal	130f4 <__extenddftf2>
   10c4a:	8626                	mv	a2,s1
   10c4c:	86a2                	mv	a3,s0
   10c4e:	21d010ef          	jal	1266a <__subtf3>
   10c52:	580020ef          	jal	131d2 <__trunctfdf2>
   10c56:	00ab3827          	fsd	fa0,16(s6)
   10c5a:	b5d5                	j	10b3e <SolveCubic+0x1a8>
   10c5c:	995ff0ef          	jal	105f0 <sqrt@plt>
   10c60:	22a50453          	fmv.d	fs0,fa0
   10c64:	b569                	j	10aee <SolveCubic+0x158>
   10c66:	98bff0ef          	jal	105f0 <sqrt@plt>
   10c6a:	22a507d3          	fmv.d	fa5,fa0
   10c6e:	b71d                	j	10b94 <SolveCubic+0x1fe>
   10c70:	981ff0ef          	jal	105f0 <sqrt@plt>
   10c74:	8f01ba87          	fld	fs5,-1808(gp) # 150f0 <__SDATA_BEGIN__+0xa0>
   10c78:	22a50953          	fmv.d	fs2,fa0
   10c7c:	1b54f553          	fdiv.d	fa0,fs1,fs5
   10c80:	9a1ff0ef          	jal	10620 <cos@plt>
   10c84:	5b8bb683          	ld	a3,1464(s7)
   10c88:	4601                	li	a2,0
   10c8a:	8526                	mv	a0,s1
   10c8c:	85a2                	mv	a1,s0
   10c8e:	22a50a53          	fmv.d	fs4,fa0
   10c92:	2a5000ef          	jal	11736 <__divtf3>
   10c96:	8c01b987          	fld	fs3,-1856(gp) # 150c0 <__SDATA_BEGIN__+0x70>
   10c9a:	84aa                	mv	s1,a0
   10c9c:	842e                	mv	s0,a1
   10c9e:	13397953          	fmul.d	fs2,fs2,fs3
   10ca2:	13497553          	fmul.d	fa0,fs2,fs4
   10ca6:	44e020ef          	jal	130f4 <__extenddftf2>
   10caa:	8626                	mv	a2,s1
   10cac:	86a2                	mv	a3,s0
   10cae:	1bd010ef          	jal	1266a <__subtf3>
   10cb2:	520020ef          	jal	131d2 <__trunctfdf2>
   10cb6:	22a507d3          	fmv.d	fa5,fa0
   10cba:	22840553          	fmv.d	fa0,fs0
   10cbe:	00fb3027          	fsd	fa5,0(s6)
   10cc2:	92fff0ef          	jal	105f0 <sqrt@plt>
   10cc6:	22a50953          	fmv.d	fs2,fa0
   10cca:	8f81b507          	fld	fa0,-1800(gp) # 150f8 <__SDATA_BEGIN__+0xa8>
   10cce:	13397953          	fmul.d	fs2,fs2,fs3
   10cd2:	02a4f553          	fadd.d	fa0,fs1,fa0
   10cd6:	1b557553          	fdiv.d	fa0,fa0,fs5
   10cda:	947ff0ef          	jal	10620 <cos@plt>
   10cde:	12a97553          	fmul.d	fa0,fs2,fa0
   10ce2:	412020ef          	jal	130f4 <__extenddftf2>
   10ce6:	8626                	mv	a2,s1
   10ce8:	86a2                	mv	a3,s0
   10cea:	181010ef          	jal	1266a <__subtf3>
   10cee:	4e4020ef          	jal	131d2 <__trunctfdf2>
   10cf2:	22a507d3          	fmv.d	fa5,fa0
   10cf6:	22840553          	fmv.d	fa0,fs0
   10cfa:	00fb3427          	fsd	fa5,8(s6)
   10cfe:	8f3ff0ef          	jal	105f0 <sqrt@plt>
   10d02:	13357453          	fmul.d	fs0,fa0,fs3
   10d06:	b725                	j	10c2e <SolveCubic+0x298>

0000000000010d08 <initialise_board>:
   10d08:	8082                	ret

0000000000010d0a <start_trigger>:
   10d0a:	8082                	ret

0000000000010d0c <stop_trigger>:
   10d0c:	8082                	ret

0000000000010d0e <__addtf3>:
   10d0e:	7179                	add	sp,sp,-48
   10d10:	f406                	sd	ra,40(sp)
   10d12:	f022                	sd	s0,32(sp)
   10d14:	ec26                	sd	s1,24(sp)
   10d16:	e84a                	sd	s2,16(sp)
   10d18:	e44e                	sd	s3,8(sp)
   10d1a:	e052                	sd	s4,0(sp)
   10d1c:	002029f3          	frrm	s3
   10d20:	5f7d                	li	t5,-1
   10d22:	6fa1                	lui	t6,0x8
   10d24:	010f5793          	srl	a5,t5,0x10
   10d28:	ffff8e93          	add	t4,t6,-1 # 7fff <__abi_tag-0x8295>
   10d2c:	0305da13          	srl	s4,a1,0x30
   10d30:	0306d313          	srl	t1,a3,0x30
   10d34:	00f5f833          	and	a6,a1,a5
   10d38:	00f6f733          	and	a4,a3,a5
   10d3c:	03f5d413          	srl	s0,a1,0x3f
   10d40:	01da7a33          	and	s4,s4,t4
   10d44:	01d375b3          	and	a1,t1,t4
   10d48:	03d55793          	srl	a5,a0,0x3d
   10d4c:	070e                	sll	a4,a4,0x3
   10d4e:	03d65893          	srl	a7,a2,0x3d
   10d52:	080e                	sll	a6,a6,0x3
   10d54:	03f6de13          	srl	t3,a3,0x3f
   10d58:	40ba06bb          	subw	a3,s4,a1
   10d5c:	00e8e8b3          	or	a7,a7,a4
   10d60:	2981                	sext.w	s3,s3
   10d62:	0107e7b3          	or	a5,a5,a6
   10d66:	050e                	sll	a0,a0,0x3
   10d68:	060e                	sll	a2,a2,0x3
   10d6a:	0006871b          	sext.w	a4,a3
   10d6e:	13c40d63          	beq	s0,t3,10ea8 <__addtf3+0x19a>
   10d72:	0ce05863          	blez	a4,10e42 <__addtf3+0x134>
   10d76:	22058963          	beqz	a1,10fa8 <__addtf3+0x29a>
   10d7a:	45da0763          	beq	s4,t4,111c8 <__addtf3+0x4ba>
   10d7e:	07400693          	li	a3,116
   10d82:	4485                	li	s1,1
   10d84:	02e6ca63          	blt	a3,a4,10db8 <__addtf3+0xaa>
   10d88:	14ce                	sll	s1,s1,0x33
   10d8a:	0098e8b3          	or	a7,a7,s1
   10d8e:	03f00693          	li	a3,63
   10d92:	52e6c963          	blt	a3,a4,112c4 <__addtf3+0x5b6>
   10d96:	04000693          	li	a3,64
   10d9a:	9e99                	subw	a3,a3,a4
   10d9c:	00d894b3          	sll	s1,a7,a3
   10da0:	00e655b3          	srl	a1,a2,a4
   10da4:	00d616b3          	sll	a3,a2,a3
   10da8:	8ccd                	or	s1,s1,a1
   10daa:	00d036b3          	snez	a3,a3
   10dae:	00e8d8b3          	srl	a7,a7,a4
   10db2:	8cd5                	or	s1,s1,a3
   10db4:	411787b3          	sub	a5,a5,a7
   10db8:	409504b3          	sub	s1,a0,s1
   10dbc:	00953533          	sltu	a0,a0,s1
   10dc0:	40a78933          	sub	s2,a5,a0
   10dc4:	03395793          	srl	a5,s2,0x33
   10dc8:	8b85                	and	a5,a5,1
   10dca:	2c078263          	beqz	a5,1108e <__addtf3+0x380>
   10dce:	0936                	sll	s2,s2,0xd
   10dd0:	00d95913          	srl	s2,s2,0xd
   10dd4:	38090b63          	beqz	s2,1116a <__addtf3+0x45c>
   10dd8:	854a                	mv	a0,s2
   10dda:	776020ef          	jal	13550 <__clzdi2>
   10dde:	ff45071b          	addw	a4,a0,-12 # 14ff4 <_DYNAMIC+0x1e4>
   10de2:	04000693          	li	a3,64
   10de6:	40e687bb          	subw	a5,a3,a4
   10dea:	00f4d7b3          	srl	a5,s1,a5
   10dee:	00e91933          	sll	s2,s2,a4
   10df2:	0127e7b3          	or	a5,a5,s2
   10df6:	00e494b3          	sll	s1,s1,a4
   10dfa:	41474363          	blt	a4,s4,11200 <__addtf3+0x4f2>
   10dfe:	4147073b          	subw	a4,a4,s4
   10e02:	0017059b          	addw	a1,a4,1 # 15001 <__TMC_END__+0x1>
   10e06:	9e8d                	subw	a3,a3,a1
   10e08:	00d49633          	sll	a2,s1,a3
   10e0c:	00b4d933          	srl	s2,s1,a1
   10e10:	00c03633          	snez	a2,a2
   10e14:	00c96633          	or	a2,s2,a2
   10e18:	00d796b3          	sll	a3,a5,a3
   10e1c:	00c6e4b3          	or	s1,a3,a2
   10e20:	00b7d933          	srl	s2,a5,a1
   10e24:	0124e733          	or	a4,s1,s2
   10e28:	1e071c63          	bnez	a4,11020 <__addtf3+0x312>
   10e2c:	85a2                	mv	a1,s0
   10e2e:	4501                	li	a0,0
   10e30:	15fe                	sll	a1,a1,0x3f
   10e32:	70a2                	ld	ra,40(sp)
   10e34:	7402                	ld	s0,32(sp)
   10e36:	64e2                	ld	s1,24(sp)
   10e38:	6942                	ld	s2,16(sp)
   10e3a:	69a2                	ld	s3,8(sp)
   10e3c:	6a02                	ld	s4,0(sp)
   10e3e:	6145                	add	sp,sp,48
   10e40:	8082                	ret
   10e42:	18070363          	beqz	a4,10fc8 <__addtf3+0x2ba>
   10e46:	420a1563          	bnez	s4,11270 <__addtf3+0x562>
   10e4a:	00a7e733          	or	a4,a5,a0
   10e4e:	50070663          	beqz	a4,1135a <__addtf3+0x64c>
   10e52:	fff6c693          	not	a3,a3
   10e56:	2681                	sext.w	a3,a3
   10e58:	70068563          	beqz	a3,11562 <__addtf3+0x854>
   10e5c:	59d58963          	beq	a1,t4,113ee <__addtf3+0x6e0>
   10e60:	07400713          	li	a4,116
   10e64:	4485                	li	s1,1
   10e66:	02d74863          	blt	a4,a3,10e96 <__addtf3+0x188>
   10e6a:	03f00713          	li	a4,63
   10e6e:	68d74563          	blt	a4,a3,114f8 <__addtf3+0x7ea>
   10e72:	04000713          	li	a4,64
   10e76:	9f15                	subw	a4,a4,a3
   10e78:	00e794b3          	sll	s1,a5,a4
   10e7c:	00d55833          	srl	a6,a0,a3
   10e80:	00e51733          	sll	a4,a0,a4
   10e84:	0104e4b3          	or	s1,s1,a6
   10e88:	00e03733          	snez	a4,a4
   10e8c:	00d7d6b3          	srl	a3,a5,a3
   10e90:	8cd9                	or	s1,s1,a4
   10e92:	40d888b3          	sub	a7,a7,a3
   10e96:	409604b3          	sub	s1,a2,s1
   10e9a:	00963633          	sltu	a2,a2,s1
   10e9e:	40c88933          	sub	s2,a7,a2
   10ea2:	8a2e                	mv	s4,a1
   10ea4:	8472                	mv	s0,t3
   10ea6:	bf39                	j	10dc4 <__addtf3+0xb6>
   10ea8:	22e05f63          	blez	a4,110e6 <__addtf3+0x3d8>
   10eac:	1a059563          	bnez	a1,11056 <__addtf3+0x348>
   10eb0:	00c8e733          	or	a4,a7,a2
   10eb4:	52070163          	beqz	a4,113d6 <__addtf3+0x6c8>
   10eb8:	fff6871b          	addw	a4,a3,-1
   10ebc:	4c070663          	beqz	a4,11388 <__addtf3+0x67a>
   10ec0:	31da0463          	beq	s4,t4,111c8 <__addtf3+0x4ba>
   10ec4:	07400693          	li	a3,116
   10ec8:	4905                	li	s2,1
   10eca:	02e6c863          	blt	a3,a4,10efa <__addtf3+0x1ec>
   10ece:	03f00693          	li	a3,63
   10ed2:	5ee6cc63          	blt	a3,a4,114ca <__addtf3+0x7bc>
   10ed6:	04000693          	li	a3,64
   10eda:	9e99                	subw	a3,a3,a4
   10edc:	00d89933          	sll	s2,a7,a3
   10ee0:	00e655b3          	srl	a1,a2,a4
   10ee4:	00d616b3          	sll	a3,a2,a3
   10ee8:	00b96933          	or	s2,s2,a1
   10eec:	00d036b3          	snez	a3,a3
   10ef0:	00e8d8b3          	srl	a7,a7,a4
   10ef4:	00d96933          	or	s2,s2,a3
   10ef8:	97c6                	add	a5,a5,a7
   10efa:	954a                	add	a0,a0,s2
   10efc:	01253933          	sltu	s2,a0,s2
   10f00:	84aa                	mv	s1,a0
   10f02:	993e                	add	s2,s2,a5
   10f04:	03395793          	srl	a5,s2,0x33
   10f08:	8b85                	and	a5,a5,1
   10f0a:	18078263          	beqz	a5,1108e <__addtf3+0x380>
   10f0e:	67a1                	lui	a5,0x8
   10f10:	0a05                	add	s4,s4,1
   10f12:	fff78713          	add	a4,a5,-1 # 7fff <__abi_tag-0x8295>
   10f16:	58ea0c63          	beq	s4,a4,114ae <__addtf3+0x7a0>
   10f1a:	577d                	li	a4,-1
   10f1c:	174e                	sll	a4,a4,0x33
   10f1e:	177d                	add	a4,a4,-1
   10f20:	00e97733          	and	a4,s2,a4
   10f24:	0014d793          	srl	a5,s1,0x1
   10f28:	8885                	and	s1,s1,1
   10f2a:	8fc5                	or	a5,a5,s1
   10f2c:	03f71493          	sll	s1,a4,0x3f
   10f30:	8cdd                	or	s1,s1,a5
   10f32:	00175913          	srl	s2,a4,0x1
   10f36:	8b9d                	and	a5,a5,7
   10f38:	32078863          	beqz	a5,11268 <__addtf3+0x55a>
   10f3c:	4789                	li	a5,2
   10f3e:	2af98f63          	beq	s3,a5,111fc <__addtf3+0x4ee>
   10f42:	478d                	li	a5,3
   10f44:	20f98a63          	beq	s3,a5,11158 <__addtf3+0x44a>
   10f48:	12098263          	beqz	s3,1106c <__addtf3+0x35e>
   10f4c:	4705                	li	a4,1
   10f4e:	03395793          	srl	a5,s2,0x33
   10f52:	8b85                	and	a5,a5,1
   10f54:	7c078663          	beqz	a5,11720 <__addtf3+0xa12>
   10f58:	65a1                	lui	a1,0x8
   10f5a:	001a0693          	add	a3,s4,1
   10f5e:	fff58613          	add	a2,a1,-1 # 7fff <__abi_tag-0x8295>
   10f62:	14c68c63          	beq	a3,a2,110ba <__addtf3+0x3ac>
   10f66:	57fd                	li	a5,-1
   10f68:	8ef1                	and	a3,a3,a2
   10f6a:	17ce                	sll	a5,a5,0x33
   10f6c:	17fd                	add	a5,a5,-1
   10f6e:	16c2                	sll	a3,a3,0x30
   10f70:	00f977b3          	and	a5,s2,a5
   10f74:	92c1                	srl	a3,a3,0x30
   10f76:	808d                	srl	s1,s1,0x3
   10f78:	03d79513          	sll	a0,a5,0x3d
   10f7c:	00d79593          	sll	a1,a5,0xd
   10f80:	8d45                	or	a0,a0,s1
   10f82:	81c1                	srl	a1,a1,0x10
   10f84:	043e                	sll	s0,s0,0xf
   10f86:	05c2                	sll	a1,a1,0x10
   10f88:	8c55                	or	s0,s0,a3
   10f8a:	1442                	sll	s0,s0,0x30
   10f8c:	81c1                	srl	a1,a1,0x10
   10f8e:	8dc1                	or	a1,a1,s0
   10f90:	ea0701e3          	beqz	a4,10e32 <__addtf3+0x124>
   10f94:	00172073          	csrs	fflags,a4
   10f98:	70a2                	ld	ra,40(sp)
   10f9a:	7402                	ld	s0,32(sp)
   10f9c:	64e2                	ld	s1,24(sp)
   10f9e:	6942                	ld	s2,16(sp)
   10fa0:	69a2                	ld	s3,8(sp)
   10fa2:	6a02                	ld	s4,0(sp)
   10fa4:	6145                	add	sp,sp,48
   10fa6:	8082                	ret
   10fa8:	00c8e733          	or	a4,a7,a2
   10fac:	30070463          	beqz	a4,112b4 <__addtf3+0x5a6>
   10fb0:	fff6871b          	addw	a4,a3,-1
   10fb4:	3e070e63          	beqz	a4,113b0 <__addtf3+0x6a2>
   10fb8:	21da0863          	beq	s4,t4,111c8 <__addtf3+0x4ba>
   10fbc:	07400693          	li	a3,116
   10fc0:	4485                	li	s1,1
   10fc2:	dee6cbe3          	blt	a3,a4,10db8 <__addtf3+0xaa>
   10fc6:	b3e1                	j	10d8e <__addtf3+0x80>
   10fc8:	001a0693          	add	a3,s4,1
   10fcc:	ffef8813          	add	a6,t6,-2
   10fd0:	0106f6b3          	and	a3,a3,a6
   10fd4:	2a069a63          	bnez	a3,11288 <__addtf3+0x57a>
   10fd8:	00a7e833          	or	a6,a5,a0
   10fdc:	00c8e6b3          	or	a3,a7,a2
   10fe0:	380a1563          	bnez	s4,1136a <__addtf3+0x65c>
   10fe4:	3e080063          	beqz	a6,113c4 <__addtf3+0x6b6>
   10fe8:	3e068363          	beqz	a3,113ce <__addtf3+0x6c0>
   10fec:	40c505b3          	sub	a1,a0,a2
   10ff0:	00b536b3          	sltu	a3,a0,a1
   10ff4:	41178733          	sub	a4,a5,a7
   10ff8:	8f15                	sub	a4,a4,a3
   10ffa:	03375693          	srl	a3,a4,0x33
   10ffe:	8a85                	and	a3,a3,1
   11000:	62068363          	beqz	a3,11626 <__addtf3+0x918>
   11004:	40a60533          	sub	a0,a2,a0
   11008:	40f888b3          	sub	a7,a7,a5
   1100c:	00a63633          	sltu	a2,a2,a0
   11010:	40c88933          	sub	s2,a7,a2
   11014:	01256733          	or	a4,a0,s2
   11018:	84aa                	mv	s1,a0
   1101a:	8472                	mv	s0,t3
   1101c:	e00708e3          	beqz	a4,10e2c <__addtf3+0x11e>
   11020:	0074f693          	and	a3,s1,7
   11024:	00149713          	sll	a4,s1,0x1
   11028:	00191793          	sll	a5,s2,0x1
   1102c:	03f4d613          	srl	a2,s1,0x3f
   11030:	00777593          	and	a1,a4,7
   11034:	97b2                	add	a5,a5,a2
   11036:	cdb9                	beqz	a1,11094 <__addtf3+0x386>
   11038:	4609                	li	a2,2
   1103a:	40c98863          	beq	s3,a2,1144a <__addtf3+0x73c>
   1103e:	460d                	li	a2,3
   11040:	42c98e63          	beq	s3,a2,1147c <__addtf3+0x76e>
   11044:	3c098463          	beqz	s3,1140c <__addtf3+0x6fe>
   11048:	93d1                	srl	a5,a5,0x34
   1104a:	8b85                	and	a5,a5,1
   1104c:	c7a5                	beqz	a5,110b4 <__addtf3+0x3a6>
   1104e:	4705                	li	a4,1
   11050:	cae5                	beqz	a3,11140 <__addtf3+0x432>
   11052:	4a01                	li	s4,0
   11054:	b5e5                	j	10f3c <__addtf3+0x22e>
   11056:	17da0963          	beq	s4,t4,111c8 <__addtf3+0x4ba>
   1105a:	07400693          	li	a3,116
   1105e:	4905                	li	s2,1
   11060:	e8e6cde3          	blt	a3,a4,10efa <__addtf3+0x1ec>
   11064:	194e                	sll	s2,s2,0x33
   11066:	0128e8b3          	or	a7,a7,s2
   1106a:	b595                	j	10ece <__addtf3+0x1c0>
   1106c:	00f4f793          	and	a5,s1,15
   11070:	4711                	li	a4,4
   11072:	4681                	li	a3,0
   11074:	ece78ce3          	beq	a5,a4,10f4c <__addtf3+0x23e>
   11078:	00448793          	add	a5,s1,4
   1107c:	0097b4b3          	sltu	s1,a5,s1
   11080:	9926                	add	s2,s2,s1
   11082:	4705                	li	a4,1
   11084:	84be                	mv	s1,a5
   11086:	ec0684e3          	beqz	a3,10f4e <__addtf3+0x240>
   1108a:	470d                	li	a4,3
   1108c:	b5c9                	j	10f4e <__addtf3+0x240>
   1108e:	0074f793          	and	a5,s1,7
   11092:	b55d                	j	10f38 <__addtf3+0x22a>
   11094:	93d1                	srl	a5,a5,0x34
   11096:	8b85                	and	a5,a5,1
   11098:	22079463          	bnez	a5,112c0 <__addtf3+0x5b2>
   1109c:	4701                	li	a4,0
   1109e:	c2cd                	beqz	a3,11140 <__addtf3+0x432>
   110a0:	478d                	li	a5,3
   110a2:	68f98663          	beq	s3,a5,1172e <__addtf3+0xa20>
   110a6:	0137c763          	blt	a5,s3,110b4 <__addtf3+0x3a6>
   110aa:	4e098563          	beqz	s3,11594 <__addtf3+0x886>
   110ae:	4789                	li	a5,2
   110b0:	66f98b63          	beq	s3,a5,11726 <__addtf3+0xa18>
   110b4:	4a01                	li	s4,0
   110b6:	470d                	li	a4,3
   110b8:	bd59                	j	10f4e <__addtf3+0x240>
   110ba:	10098063          	beqz	s3,111ba <__addtf3+0x4ac>
   110be:	478d                	li	a5,3
   110c0:	0ef98c63          	beq	s3,a5,111b8 <__addtf3+0x4aa>
   110c4:	4789                	li	a5,2
   110c6:	2cf98963          	beq	s3,a5,11398 <__addtf3+0x68a>
   110ca:	557d                	li	a0,-1
   110cc:	00576713          	or	a4,a4,5
   110d0:	00355793          	srl	a5,a0,0x3
   110d4:	ffe58a13          	add	s4,a1,-2
   110d8:	07c2                	sll	a5,a5,0x10
   110da:	031a1693          	sll	a3,s4,0x31
   110de:	0107d593          	srl	a1,a5,0x10
   110e2:	92c5                	srl	a3,a3,0x31
   110e4:	b545                	j	10f84 <__addtf3+0x276>
   110e6:	12070d63          	beqz	a4,11220 <__addtf3+0x512>
   110ea:	200a0063          	beqz	s4,112ea <__addtf3+0x5dc>
   110ee:	43d58863          	beq	a1,t4,1151e <__addtf3+0x810>
   110f2:	f8c00813          	li	a6,-116
   110f6:	4905                	li	s2,1
   110f8:	03074d63          	blt	a4,a6,11132 <__addtf3+0x424>
   110fc:	194e                	sll	s2,s2,0x33
   110fe:	40d006bb          	negw	a3,a3
   11102:	0127e7b3          	or	a5,a5,s2
   11106:	03f00713          	li	a4,63
   1110a:	4ad74063          	blt	a4,a3,115aa <__addtf3+0x89c>
   1110e:	04000713          	li	a4,64
   11112:	9f15                	subw	a4,a4,a3
   11114:	00e79933          	sll	s2,a5,a4
   11118:	00d55833          	srl	a6,a0,a3
   1111c:	00e51733          	sll	a4,a0,a4
   11120:	01096933          	or	s2,s2,a6
   11124:	00e03733          	snez	a4,a4
   11128:	00d7d6b3          	srl	a3,a5,a3
   1112c:	00e96933          	or	s2,s2,a4
   11130:	98b6                	add	a7,a7,a3
   11132:	964a                	add	a2,a2,s2
   11134:	01263933          	sltu	s2,a2,s2
   11138:	84b2                	mv	s1,a2
   1113a:	9946                	add	s2,s2,a7
   1113c:	8a2e                	mv	s4,a1
   1113e:	b3d9                	j	10f04 <__addtf3+0x1f6>
   11140:	03395793          	srl	a5,s2,0x33
   11144:	8b85                	and	a5,a5,1
   11146:	4a078363          	beqz	a5,115ec <__addtf3+0x8de>
   1114a:	57fd                	li	a5,-1
   1114c:	17ce                	sll	a5,a5,0x33
   1114e:	17fd                	add	a5,a5,-1
   11150:	00f977b3          	and	a5,s2,a5
   11154:	4685                	li	a3,1
   11156:	b505                	j	10f76 <__addtf3+0x268>
   11158:	de041ae3          	bnez	s0,10f4c <__addtf3+0x23e>
   1115c:	00848793          	add	a5,s1,8
   11160:	0097b4b3          	sltu	s1,a5,s1
   11164:	9926                	add	s2,s2,s1
   11166:	84be                	mv	s1,a5
   11168:	b3d5                	j	10f4c <__addtf3+0x23e>
   1116a:	8526                	mv	a0,s1
   1116c:	3e4020ef          	jal	13550 <__clzdi2>
   11170:	0345071b          	addw	a4,a0,52
   11174:	03f00613          	li	a2,63
   11178:	c6e655e3          	bge	a2,a4,10de2 <__addtf3+0xd4>
   1117c:	ff45079b          	addw	a5,a0,-12
   11180:	00f497b3          	sll	a5,s1,a5
   11184:	19474463          	blt	a4,s4,1130c <__addtf3+0x5fe>
   11188:	4147073b          	subw	a4,a4,s4
   1118c:	0017059b          	addw	a1,a4,1
   11190:	4ab65d63          	bge	a2,a1,1164a <__addtf3+0x93c>
   11194:	fc17071b          	addw	a4,a4,-63
   11198:	04000693          	li	a3,64
   1119c:	00e7d733          	srl	a4,a5,a4
   111a0:	00d58a63          	beq	a1,a3,111b4 <__addtf3+0x4a6>
   111a4:	08000693          	li	a3,128
   111a8:	9e8d                	subw	a3,a3,a1
   111aa:	00d797b3          	sll	a5,a5,a3
   111ae:	00f037b3          	snez	a5,a5
   111b2:	8f5d                	or	a4,a4,a5
   111b4:	84ba                	mv	s1,a4
   111b6:	b98d                	j	10e28 <__addtf3+0x11a>
   111b8:	f809                	bnez	s0,110ca <__addtf3+0x3bc>
   111ba:	00576713          	or	a4,a4,5
   111be:	66a1                	lui	a3,0x8
   111c0:	16fd                	add	a3,a3,-1 # 7fff <__abi_tag-0x8295>
   111c2:	4581                	li	a1,0
   111c4:	4501                	li	a0,0
   111c6:	bb7d                	j	10f84 <__addtf3+0x276>
   111c8:	00a7e733          	or	a4,a5,a0
   111cc:	cb21                	beqz	a4,1121c <__addtf3+0x50e>
   111ce:	0327d713          	srl	a4,a5,0x32
   111d2:	00174713          	xor	a4,a4,1
   111d6:	8b05                	and	a4,a4,1
   111d8:	0712                	sll	a4,a4,0x4
   111da:	66a1                	lui	a3,0x8
   111dc:	03d79613          	sll	a2,a5,0x3d
   111e0:	810d                	srl	a0,a0,0x3
   111e2:	16fd                	add	a3,a3,-1 # 7fff <__abi_tag-0x8295>
   111e4:	8d51                	or	a0,a0,a2
   111e6:	838d                	srl	a5,a5,0x3
   111e8:	eeda18e3          	bne	s4,a3,110d8 <__addtf3+0x3ca>
   111ec:	8d5d                	or	a0,a0,a5
   111ee:	d961                	beqz	a0,111be <__addtf3+0x4b0>
   111f0:	4585                	li	a1,1
   111f2:	4401                	li	s0,0
   111f4:	86d2                	mv	a3,s4
   111f6:	15be                	sll	a1,a1,0x2f
   111f8:	4501                	li	a0,0
   111fa:	b369                	j	10f84 <__addtf3+0x276>
   111fc:	f025                	bnez	s0,1115c <__addtf3+0x44e>
   111fe:	b3b9                	j	10f4c <__addtf3+0x23e>
   11200:	597d                	li	s2,-1
   11202:	194e                	sll	s2,s2,0x33
   11204:	197d                	add	s2,s2,-1
   11206:	0074f693          	and	a3,s1,7
   1120a:	40ea0a33          	sub	s4,s4,a4
   1120e:	0127f933          	and	s2,a5,s2
   11212:	d20695e3          	bnez	a3,10f3c <__addtf3+0x22e>
   11216:	4701                	li	a4,0
   11218:	bb1d                	j	10f4e <__addtf3+0x240>
   1121a:	8472                	mv	s0,t3
   1121c:	4701                	li	a4,0
   1121e:	b745                	j	111be <__addtf3+0x4b0>
   11220:	001a0693          	add	a3,s4,1
   11224:	ffef8813          	add	a6,t6,-2
   11228:	0106f333          	and	t1,a3,a6
   1122c:	0e031a63          	bnez	t1,11320 <__addtf3+0x612>
   11230:	00a7e6b3          	or	a3,a5,a0
   11234:	300a1363          	bnez	s4,1153a <__addtf3+0x82c>
   11238:	00c8e733          	or	a4,a7,a2
   1123c:	36068463          	beqz	a3,115a4 <__addtf3+0x896>
   11240:	18070763          	beqz	a4,113ce <__addtf3+0x6c0>
   11244:	962a                	add	a2,a2,a0
   11246:	98be                	add	a7,a7,a5
   11248:	00a63533          	sltu	a0,a2,a0
   1124c:	00a88933          	add	s2,a7,a0
   11250:	03395793          	srl	a5,s2,0x33
   11254:	8b85                	and	a5,a5,1
   11256:	84b2                	mv	s1,a2
   11258:	bc0786e3          	beqz	a5,10e24 <__addtf3+0x116>
   1125c:	033f1793          	sll	a5,t5,0x33
   11260:	17fd                	add	a5,a5,-1
   11262:	00f97933          	and	s2,s2,a5
   11266:	4a05                	li	s4,1
   11268:	87ca                	mv	a5,s2
   1126a:	8526                	mv	a0,s1
   1126c:	4701                	li	a4,0
   1126e:	b7b5                	j	111da <__addtf3+0x4cc>
   11270:	17d58f63          	beq	a1,t4,113ee <__addtf3+0x6e0>
   11274:	f8c00813          	li	a6,-116
   11278:	4485                	li	s1,1
   1127a:	c1074ee3          	blt	a4,a6,10e96 <__addtf3+0x188>
   1127e:	14ce                	sll	s1,s1,0x33
   11280:	40d006bb          	negw	a3,a3
   11284:	8fc5                	or	a5,a5,s1
   11286:	b6d5                	j	10e6a <__addtf3+0x15c>
   11288:	40c50733          	sub	a4,a0,a2
   1128c:	00e536b3          	sltu	a3,a0,a4
   11290:	41178933          	sub	s2,a5,a7
   11294:	40d90933          	sub	s2,s2,a3
   11298:	03395693          	srl	a3,s2,0x33
   1129c:	8a85                	and	a3,a3,1
   1129e:	84ba                	mv	s1,a4
   112a0:	e2d5                	bnez	a3,11344 <__addtf3+0x636>
   112a2:	01276733          	or	a4,a4,s2
   112a6:	b20717e3          	bnez	a4,10dd4 <__addtf3+0xc6>
   112aa:	ffe98593          	add	a1,s3,-2
   112ae:	0015b593          	seqz	a1,a1
   112b2:	beb5                	j	10e2e <__addtf3+0x120>
   112b4:	f3da13e3          	bne	s4,t4,111da <__addtf3+0x4cc>
   112b8:	00a7e6b3          	or	a3,a5,a0
   112bc:	d289                	beqz	a3,111be <__addtf3+0x4b0>
   112be:	bf01                	j	111ce <__addtf3+0x4c0>
   112c0:	4701                	li	a4,0
   112c2:	b379                	j	11050 <__addtf3+0x342>
   112c4:	fc07069b          	addw	a3,a4,-64
   112c8:	04000593          	li	a1,64
   112cc:	00d8d6b3          	srl	a3,a7,a3
   112d0:	00b70963          	beq	a4,a1,112e2 <__addtf3+0x5d4>
   112d4:	08000593          	li	a1,128
   112d8:	40e5873b          	subw	a4,a1,a4
   112dc:	00e89733          	sll	a4,a7,a4
   112e0:	8e59                	or	a2,a2,a4
   112e2:	00c034b3          	snez	s1,a2
   112e6:	8cd5                	or	s1,s1,a3
   112e8:	bcc1                	j	10db8 <__addtf3+0xaa>
   112ea:	00a7e733          	or	a4,a5,a0
   112ee:	28070663          	beqz	a4,1157a <__addtf3+0x86c>
   112f2:	fff6c693          	not	a3,a3
   112f6:	2681                	sext.w	a3,a3
   112f8:	30068363          	beqz	a3,115fe <__addtf3+0x8f0>
   112fc:	23d58163          	beq	a1,t4,1151e <__addtf3+0x810>
   11300:	07400713          	li	a4,116
   11304:	4905                	li	s2,1
   11306:	e2d746e3          	blt	a4,a3,11132 <__addtf3+0x424>
   1130a:	bbf5                	j	11106 <__addtf3+0x3f8>
   1130c:	56fd                	li	a3,-1
   1130e:	40ea0a33          	sub	s4,s4,a4
   11312:	03369713          	sll	a4,a3,0x33
   11316:	177d                	add	a4,a4,-1
   11318:	8ff9                	and	a5,a5,a4
   1131a:	4501                	li	a0,0
   1131c:	4701                	li	a4,0
   1131e:	bd75                	j	111da <__addtf3+0x4cc>
   11320:	2bd68963          	beq	a3,t4,115d2 <__addtf3+0x8c4>
   11324:	962a                	add	a2,a2,a0
   11326:	98be                	add	a7,a7,a5
   11328:	00a63533          	sltu	a0,a2,a0
   1132c:	00a88733          	add	a4,a7,a0
   11330:	00165793          	srl	a5,a2,0x1
   11334:	03f71493          	sll	s1,a4,0x3f
   11338:	8cdd                	or	s1,s1,a5
   1133a:	00175913          	srl	s2,a4,0x1
   1133e:	8b9d                	and	a5,a5,7
   11340:	8a36                	mv	s4,a3
   11342:	bedd                	j	10f38 <__addtf3+0x22a>
   11344:	40a60533          	sub	a0,a2,a0
   11348:	40f888b3          	sub	a7,a7,a5
   1134c:	00a63633          	sltu	a2,a2,a0
   11350:	84aa                	mv	s1,a0
   11352:	40c88933          	sub	s2,a7,a2
   11356:	8472                	mv	s0,t3
   11358:	bcb5                	j	10dd4 <__addtf3+0xc6>
   1135a:	09d58a63          	beq	a1,t4,113ee <__addtf3+0x6e0>
   1135e:	87c6                	mv	a5,a7
   11360:	8532                	mv	a0,a2
   11362:	8a2e                	mv	s4,a1
   11364:	8472                	mv	s0,t3
   11366:	4701                	li	a4,0
   11368:	bd8d                	j	111da <__addtf3+0x4cc>
   1136a:	2bda0363          	beq	s4,t4,11610 <__addtf3+0x902>
   1136e:	2dd58363          	beq	a1,t4,11634 <__addtf3+0x926>
   11372:	02080663          	beqz	a6,1139e <__addtf3+0x690>
   11376:	1c068c63          	beqz	a3,1154e <__addtf3+0x840>
   1137a:	66a1                	lui	a3,0x8
   1137c:	4585                	li	a1,1
   1137e:	4401                	li	s0,0
   11380:	16fd                	add	a3,a3,-1 # 7fff <__abi_tag-0x8295>
   11382:	15be                	sll	a1,a1,0x2f
   11384:	4501                	li	a0,0
   11386:	befd                	j	10f84 <__addtf3+0x276>
   11388:	962a                	add	a2,a2,a0
   1138a:	98be                	add	a7,a7,a5
   1138c:	00a63533          	sltu	a0,a2,a0
   11390:	84b2                	mv	s1,a2
   11392:	00a88933          	add	s2,a7,a0
   11396:	b6bd                	j	10f04 <__addtf3+0x1f6>
   11398:	d20409e3          	beqz	s0,110ca <__addtf3+0x3bc>
   1139c:	bd39                	j	111ba <__addtf3+0x4ac>
   1139e:	28068e63          	beqz	a3,1163a <__addtf3+0x92c>
   113a2:	66a1                	lui	a3,0x8
   113a4:	87c6                	mv	a5,a7
   113a6:	8532                	mv	a0,a2
   113a8:	8472                	mv	s0,t3
   113aa:	fff68a13          	add	s4,a3,-1 # 7fff <__abi_tag-0x8295>
   113ae:	b535                	j	111da <__addtf3+0x4cc>
   113b0:	40c50633          	sub	a2,a0,a2
   113b4:	411788b3          	sub	a7,a5,a7
   113b8:	00c53533          	sltu	a0,a0,a2
   113bc:	84b2                	mv	s1,a2
   113be:	40a88933          	sub	s2,a7,a0
   113c2:	b409                	j	10dc4 <__addtf3+0xb6>
   113c4:	ee0683e3          	beqz	a3,112aa <__addtf3+0x59c>
   113c8:	87c6                	mv	a5,a7
   113ca:	8532                	mv	a0,a2
   113cc:	8472                	mv	s0,t3
   113ce:	893e                	mv	s2,a5
   113d0:	84aa                	mv	s1,a0
   113d2:	4681                	li	a3,0
   113d4:	b981                	j	11024 <__addtf3+0x316>
   113d6:	e1da12e3          	bne	s4,t4,111da <__addtf3+0x4cc>
   113da:	00a7e6b3          	or	a3,a5,a0
   113de:	de0680e3          	beqz	a3,111be <__addtf3+0x4b0>
   113e2:	0327d713          	srl	a4,a5,0x32
   113e6:	00174713          	xor	a4,a4,1
   113ea:	0712                	sll	a4,a4,0x4
   113ec:	b3fd                	j	111da <__addtf3+0x4cc>
   113ee:	00c8e7b3          	or	a5,a7,a2
   113f2:	e20784e3          	beqz	a5,1121a <__addtf3+0x50c>
   113f6:	0328d713          	srl	a4,a7,0x32
   113fa:	00174713          	xor	a4,a4,1
   113fe:	8b05                	and	a4,a4,1
   11400:	0712                	sll	a4,a4,0x4
   11402:	87c6                	mv	a5,a7
   11404:	8532                	mv	a0,a2
   11406:	8a2e                	mv	s4,a1
   11408:	8472                	mv	s0,t3
   1140a:	bbc1                	j	111da <__addtf3+0x4cc>
   1140c:	00f77613          	and	a2,a4,15
   11410:	4591                	li	a1,4
   11412:	16b60b63          	beq	a2,a1,11588 <__addtf3+0x87a>
   11416:	ffc73713          	sltiu	a4,a4,-4
   1141a:	00174713          	xor	a4,a4,1
   1141e:	1702                	sll	a4,a4,0x20
   11420:	9301                	srl	a4,a4,0x20
   11422:	97ba                	add	a5,a5,a4
   11424:	93d1                	srl	a5,a5,0x34
   11426:	8b85                	and	a5,a5,1
   11428:	c20793e3          	bnez	a5,1104e <__addtf3+0x340>
   1142c:	c80684e3          	beqz	a3,110b4 <__addtf3+0x3a6>
   11430:	00f4f793          	and	a5,s1,15
   11434:	c8b780e3          	beq	a5,a1,110b4 <__addtf3+0x3a6>
   11438:	00448793          	add	a5,s1,4
   1143c:	0097b4b3          	sltu	s1,a5,s1
   11440:	9926                	add	s2,s2,s1
   11442:	4a01                	li	s4,0
   11444:	84be                	mv	s1,a5
   11446:	470d                	li	a4,3
   11448:	b619                	j	10f4e <__addtf3+0x240>
   1144a:	be040fe3          	beqz	s0,11048 <__addtf3+0x33a>
   1144e:	ff873713          	sltiu	a4,a4,-8
   11452:	00174713          	xor	a4,a4,1
   11456:	1702                	sll	a4,a4,0x20
   11458:	9301                	srl	a4,a4,0x20
   1145a:	97ba                	add	a5,a5,a4
   1145c:	93d1                	srl	a5,a5,0x34
   1145e:	8b85                	and	a5,a5,1
   11460:	be0797e3          	bnez	a5,1104e <__addtf3+0x340>
   11464:	c40688e3          	beqz	a3,110b4 <__addtf3+0x3a6>
   11468:	00848793          	add	a5,s1,8
   1146c:	0097b4b3          	sltu	s1,a5,s1
   11470:	9926                	add	s2,s2,s1
   11472:	4a01                	li	s4,0
   11474:	84be                	mv	s1,a5
   11476:	4405                	li	s0,1
   11478:	470d                	li	a4,3
   1147a:	bcd1                	j	10f4e <__addtf3+0x240>
   1147c:	bc0416e3          	bnez	s0,11048 <__addtf3+0x33a>
   11480:	ff873713          	sltiu	a4,a4,-8
   11484:	00174713          	xor	a4,a4,1
   11488:	1702                	sll	a4,a4,0x20
   1148a:	9301                	srl	a4,a4,0x20
   1148c:	97ba                	add	a5,a5,a4
   1148e:	93d1                	srl	a5,a5,0x34
   11490:	8b85                	and	a5,a5,1
   11492:	ba079ee3          	bnez	a5,1104e <__addtf3+0x340>
   11496:	c0068fe3          	beqz	a3,110b4 <__addtf3+0x3a6>
   1149a:	00848793          	add	a5,s1,8
   1149e:	0097b4b3          	sltu	s1,a5,s1
   114a2:	9926                	add	s2,s2,s1
   114a4:	4a01                	li	s4,0
   114a6:	84be                	mv	s1,a5
   114a8:	4401                	li	s0,0
   114aa:	470d                	li	a4,3
   114ac:	b44d                	j	10f4e <__addtf3+0x240>
   114ae:	04098363          	beqz	s3,114f4 <__addtf3+0x7e6>
   114b2:	470d                	li	a4,3
   114b4:	02e98f63          	beq	s3,a4,114f2 <__addtf3+0x7e4>
   114b8:	4709                	li	a4,2
   114ba:	1ce98463          	beq	s3,a4,11682 <__addtf3+0x974>
   114be:	597d                	li	s2,-1
   114c0:	54fd                	li	s1,-1
   114c2:	ffe78a13          	add	s4,a5,-2
   114c6:	4715                	li	a4,5
   114c8:	bc41                	j	10f58 <__addtf3+0x24a>
   114ca:	fc07069b          	addw	a3,a4,-64
   114ce:	04000593          	li	a1,64
   114d2:	00d8d6b3          	srl	a3,a7,a3
   114d6:	00b70963          	beq	a4,a1,114e8 <__addtf3+0x7da>
   114da:	08000593          	li	a1,128
   114de:	40e5873b          	subw	a4,a1,a4
   114e2:	00e89733          	sll	a4,a7,a4
   114e6:	8e59                	or	a2,a2,a4
   114e8:	00c03933          	snez	s2,a2
   114ec:	00d96933          	or	s2,s2,a3
   114f0:	b429                	j	10efa <__addtf3+0x1ec>
   114f2:	f471                	bnez	s0,114be <__addtf3+0x7b0>
   114f4:	4715                	li	a4,5
   114f6:	b1e1                	j	111be <__addtf3+0x4b0>
   114f8:	fc06871b          	addw	a4,a3,-64
   114fc:	04000813          	li	a6,64
   11500:	00e7d733          	srl	a4,a5,a4
   11504:	01068963          	beq	a3,a6,11516 <__addtf3+0x808>
   11508:	08000813          	li	a6,128
   1150c:	40d806bb          	subw	a3,a6,a3
   11510:	00d797b3          	sll	a5,a5,a3
   11514:	8d5d                	or	a0,a0,a5
   11516:	00a034b3          	snez	s1,a0
   1151a:	8cd9                	or	s1,s1,a4
   1151c:	baad                	j	10e96 <__addtf3+0x188>
   1151e:	00c8e7b3          	or	a5,a7,a2
   11522:	ce078de3          	beqz	a5,1121c <__addtf3+0x50e>
   11526:	0328d713          	srl	a4,a7,0x32
   1152a:	00174713          	xor	a4,a4,1
   1152e:	8b05                	and	a4,a4,1
   11530:	0712                	sll	a4,a4,0x4
   11532:	87c6                	mv	a5,a7
   11534:	8532                	mv	a0,a2
   11536:	8a2e                	mv	s4,a1
   11538:	b14d                	j	111da <__addtf3+0x4cc>
   1153a:	11da0263          	beq	s4,t4,1163e <__addtf3+0x930>
   1153e:	01d58c63          	beq	a1,t4,11556 <__addtf3+0x848>
   11542:	12068a63          	beqz	a3,11676 <__addtf3+0x968>
   11546:	00c8e633          	or	a2,a7,a2
   1154a:	e20618e3          	bnez	a2,1137a <__addtf3+0x66c>
   1154e:	66a1                	lui	a3,0x8
   11550:	fff68a13          	add	s4,a3,-1 # 7fff <__abi_tag-0x8295>
   11554:	b159                	j	111da <__addtf3+0x4cc>
   11556:	00c8e833          	or	a6,a7,a2
   1155a:	16081863          	bnez	a6,116ca <__addtf3+0x9bc>
   1155e:	fae5                	bnez	a3,1154e <__addtf3+0x840>
   11560:	b9b9                	j	111be <__addtf3+0x4b0>
   11562:	40a60533          	sub	a0,a2,a0
   11566:	40f888b3          	sub	a7,a7,a5
   1156a:	00a63633          	sltu	a2,a2,a0
   1156e:	84aa                	mv	s1,a0
   11570:	40c88933          	sub	s2,a7,a2
   11574:	8a2e                	mv	s4,a1
   11576:	8472                	mv	s0,t3
   11578:	b0b1                	j	10dc4 <__addtf3+0xb6>
   1157a:	fbd582e3          	beq	a1,t4,1151e <__addtf3+0x810>
   1157e:	87c6                	mv	a5,a7
   11580:	8532                	mv	a0,a2
   11582:	8a2e                	mv	s4,a1
   11584:	4701                	li	a4,0
   11586:	b991                	j	111da <__addtf3+0x4cc>
   11588:	93d1                	srl	a5,a5,0x34
   1158a:	8b85                	and	a5,a5,1
   1158c:	ac0791e3          	bnez	a5,1104e <__addtf3+0x340>
   11590:	b20682e3          	beqz	a3,110b4 <__addtf3+0x3a6>
   11594:	00f4f793          	and	a5,s1,15
   11598:	4711                	li	a4,4
   1159a:	b0e78de3          	beq	a5,a4,110b4 <__addtf3+0x3a6>
   1159e:	4a01                	li	s4,0
   115a0:	4685                	li	a3,1
   115a2:	bcd9                	j	11078 <__addtf3+0x36a>
   115a4:	8946                	mv	s2,a7
   115a6:	84b2                	mv	s1,a2
   115a8:	b041                	j	10e28 <__addtf3+0x11a>
   115aa:	fc06871b          	addw	a4,a3,-64
   115ae:	04000813          	li	a6,64
   115b2:	00e7d733          	srl	a4,a5,a4
   115b6:	01068963          	beq	a3,a6,115c8 <__addtf3+0x8ba>
   115ba:	08000813          	li	a6,128
   115be:	40d806bb          	subw	a3,a6,a3
   115c2:	00d797b3          	sll	a5,a5,a3
   115c6:	8d5d                	or	a0,a0,a5
   115c8:	00a03933          	snez	s2,a0
   115cc:	00e96933          	or	s2,s2,a4
   115d0:	b68d                	j	11132 <__addtf3+0x424>
   115d2:	f20981e3          	beqz	s3,114f4 <__addtf3+0x7e6>
   115d6:	478d                	li	a5,3
   115d8:	10f98563          	beq	s3,a5,116e2 <__addtf3+0x9d4>
   115dc:	4789                	li	a5,2
   115de:	12f98463          	beq	s3,a5,11706 <__addtf3+0x9f8>
   115e2:	597d                	li	s2,-1
   115e4:	54fd                	li	s1,-1
   115e6:	8a42                	mv	s4,a6
   115e8:	4715                	li	a4,5
   115ea:	b2bd                	j	10f58 <__addtf3+0x24a>
   115ec:	03d91793          	sll	a5,s2,0x3d
   115f0:	0034d513          	srl	a0,s1,0x3
   115f4:	8d5d                	or	a0,a0,a5
   115f6:	4a01                	li	s4,0
   115f8:	00395793          	srl	a5,s2,0x3
   115fc:	bcf1                	j	110d8 <__addtf3+0x3ca>
   115fe:	962a                	add	a2,a2,a0
   11600:	98be                	add	a7,a7,a5
   11602:	00a63533          	sltu	a0,a2,a0
   11606:	84b2                	mv	s1,a2
   11608:	00a88933          	add	s2,a7,a0
   1160c:	8a2e                	mv	s4,a1
   1160e:	b8dd                	j	10f04 <__addtf3+0x1f6>
   11610:	04081363          	bnez	a6,11656 <__addtf3+0x948>
   11614:	d94595e3          	bne	a1,s4,1139e <__addtf3+0x690>
   11618:	c28d                	beqz	a3,1163a <__addtf3+0x92c>
   1161a:	0328d793          	srl	a5,a7,0x32
   1161e:	8b85                	and	a5,a5,1
   11620:	eff1                	bnez	a5,116fc <__addtf3+0x9ee>
   11622:	4741                	li	a4,16
   11624:	bbbd                	j	113a2 <__addtf3+0x694>
   11626:	00e5e7b3          	or	a5,a1,a4
   1162a:	c80780e3          	beqz	a5,112aa <__addtf3+0x59c>
   1162e:	87ba                	mv	a5,a4
   11630:	852e                	mv	a0,a1
   11632:	bb71                	j	113ce <__addtf3+0x6c0>
   11634:	eaa5                	bnez	a3,116a4 <__addtf3+0x996>
   11636:	f0081ce3          	bnez	a6,1154e <__addtf3+0x840>
   1163a:	4741                	li	a4,16
   1163c:	bb3d                	j	1137a <__addtf3+0x66c>
   1163e:	e6b1                	bnez	a3,1168a <__addtf3+0x97c>
   11640:	87c6                	mv	a5,a7
   11642:	8532                	mv	a0,a2
   11644:	b9459be3          	bne	a1,s4,111da <__addtf3+0x4cc>
   11648:	b985                	j	112b8 <__addtf3+0x5aa>
   1164a:	04000693          	li	a3,64
   1164e:	9e8d                	subw	a3,a3,a1
   11650:	4601                	li	a2,0
   11652:	fc2ff06f          	j	10e14 <__addtf3+0x106>
   11656:	0327d613          	srl	a2,a5,0x32
   1165a:	8a05                	and	a2,a2,1
   1165c:	c225                	beqz	a2,116bc <__addtf3+0x9ae>
   1165e:	d1459ce3          	bne	a1,s4,11376 <__addtf3+0x668>
   11662:	ee0686e3          	beqz	a3,1154e <__addtf3+0x840>
   11666:	0328d793          	srl	a5,a7,0x32
   1166a:	0017c793          	xor	a5,a5,1
   1166e:	8b85                	and	a5,a5,1
   11670:	00479713          	sll	a4,a5,0x4
   11674:	b319                	j	1137a <__addtf3+0x66c>
   11676:	66a1                	lui	a3,0x8
   11678:	87c6                	mv	a5,a7
   1167a:	8532                	mv	a0,a2
   1167c:	fff68a13          	add	s4,a3,-1 # 7fff <__abi_tag-0x8295>
   11680:	bea9                	j	111da <__addtf3+0x4cc>
   11682:	e2040ee3          	beqz	s0,114be <__addtf3+0x7b0>
   11686:	4715                	li	a4,5
   11688:	be1d                	j	111be <__addtf3+0x4b0>
   1168a:	0327d813          	srl	a6,a5,0x32
   1168e:	00187813          	and	a6,a6,1
   11692:	04080b63          	beqz	a6,116e8 <__addtf3+0x9da>
   11696:	eb4598e3          	bne	a1,s4,11546 <__addtf3+0x838>
   1169a:	00c8e633          	or	a2,a7,a2
   1169e:	f661                	bnez	a2,11666 <__addtf3+0x958>
   116a0:	8a2e                	mv	s4,a1
   116a2:	be25                	j	111da <__addtf3+0x4cc>
   116a4:	0328d793          	srl	a5,a7,0x32
   116a8:	8b85                	and	a5,a5,1
   116aa:	e7b9                	bnez	a5,116f8 <__addtf3+0x9ea>
   116ac:	f80817e3          	bnez	a6,1163a <__addtf3+0x92c>
   116b0:	87c6                	mv	a5,a7
   116b2:	8532                	mv	a0,a2
   116b4:	8a2e                	mv	s4,a1
   116b6:	8472                	mv	s0,t3
   116b8:	4741                	li	a4,16
   116ba:	b605                	j	111da <__addtf3+0x4cc>
   116bc:	4741                	li	a4,16
   116be:	cb459ce3          	bne	a1,s4,11376 <__addtf3+0x668>
   116c2:	e80686e3          	beqz	a3,1154e <__addtf3+0x840>
   116c6:	4741                	li	a4,16
   116c8:	b94d                	j	1137a <__addtf3+0x66c>
   116ca:	0328d813          	srl	a6,a7,0x32
   116ce:	00187813          	and	a6,a6,1
   116d2:	02080e63          	beqz	a6,1170e <__addtf3+0xa00>
   116d6:	ca0692e3          	bnez	a3,1137a <__addtf3+0x66c>
   116da:	87c6                	mv	a5,a7
   116dc:	8532                	mv	a0,a2
   116de:	8a2e                	mv	s4,a1
   116e0:	bced                	j	111da <__addtf3+0x4cc>
   116e2:	f001                	bnez	s0,115e2 <__addtf3+0x8d4>
   116e4:	4715                	li	a4,5
   116e6:	bce1                	j	111be <__addtf3+0x4b0>
   116e8:	4741                	li	a4,16
   116ea:	e5459ee3          	bne	a1,s4,11546 <__addtf3+0x838>
   116ee:	00c8e733          	or	a4,a7,a2
   116f2:	e305                	bnez	a4,11712 <__addtf3+0xa04>
   116f4:	4741                	li	a4,16
   116f6:	bda1                	j	1154e <__addtf3+0x840>
   116f8:	c80811e3          	bnez	a6,1137a <__addtf3+0x66c>
   116fc:	87c6                	mv	a5,a7
   116fe:	8532                	mv	a0,a2
   11700:	8a2e                	mv	s4,a1
   11702:	8472                	mv	s0,t3
   11704:	bcd9                	j	111da <__addtf3+0x4cc>
   11706:	ec040ee3          	beqz	s0,115e2 <__addtf3+0x8d4>
   1170a:	4715                	li	a4,5
   1170c:	bc4d                	j	111be <__addtf3+0x4b0>
   1170e:	4741                	li	a4,16
   11710:	bd0d                	j	11542 <__addtf3+0x834>
   11712:	0328d593          	srl	a1,a7,0x32
   11716:	8985                	and	a1,a1,1
   11718:	4741                	li	a4,16
   1171a:	e20584e3          	beqz	a1,11542 <__addtf3+0x834>
   1171e:	b9b1                	j	1137a <__addtf3+0x66c>
   11720:	87ca                	mv	a5,s2
   11722:	8526                	mv	a0,s1
   11724:	bc5d                	j	111da <__addtf3+0x4cc>
   11726:	d40411e3          	bnez	s0,11468 <__addtf3+0x75a>
   1172a:	4a01                	li	s4,0
   1172c:	b269                	j	110b6 <__addtf3+0x3a8>
   1172e:	d60406e3          	beqz	s0,1149a <__addtf3+0x78c>
   11732:	4a01                	li	s4,0
   11734:	b249                	j	110b6 <__addtf3+0x3a8>

0000000000011736 <__divtf3>:
   11736:	7159                	add	sp,sp,-112
   11738:	eca6                	sd	s1,88(sp)
   1173a:	e86a                	sd	s10,16(sp)
   1173c:	f486                	sd	ra,104(sp)
   1173e:	f0a2                	sd	s0,96(sp)
   11740:	e8ca                	sd	s2,80(sp)
   11742:	e4ce                	sd	s3,72(sp)
   11744:	e0d2                	sd	s4,64(sp)
   11746:	fc56                	sd	s5,56(sp)
   11748:	f85a                	sd	s6,48(sp)
   1174a:	f45e                	sd	s7,40(sp)
   1174c:	f062                	sd	s8,32(sp)
   1174e:	ec66                	sd	s9,24(sp)
   11750:	e46e                	sd	s11,8(sp)
   11752:	8d32                	mv	s10,a2
   11754:	84b6                	mv	s1,a3
   11756:	00202c73          	frrm	s8
   1175a:	6721                	lui	a4,0x8
   1175c:	0305d793          	srl	a5,a1,0x30
   11760:	177d                	add	a4,a4,-1 # 7fff <__abi_tag-0x8295>
   11762:	01059413          	sll	s0,a1,0x10
   11766:	8ff9                	and	a5,a5,a4
   11768:	2c01                	sext.w	s8,s8
   1176a:	8caa                	mv	s9,a0
   1176c:	8041                	srl	s0,s0,0x10
   1176e:	03f5db93          	srl	s7,a1,0x3f
   11772:	10078e63          	beqz	a5,1188e <__divtf3+0x158>
   11776:	00078a9b          	sext.w	s5,a5
   1177a:	14e78d63          	beq	a5,a4,118d4 <__divtf3+0x19e>
   1177e:	03d55b13          	srl	s6,a0,0x3d
   11782:	040e                	sll	s0,s0,0x3
   11784:	4705                	li	a4,1
   11786:	7af1                	lui	s5,0xffffc
   11788:	008b6b33          	or	s6,s6,s0
   1178c:	174e                	sll	a4,a4,0x33
   1178e:	0a85                	add	s5,s5,1 # ffffffffffffc001 <__global_pointer$+0xfffffffffffe6801>
   11790:	00eb6b33          	or	s6,s6,a4
   11794:	00351c93          	sll	s9,a0,0x3
   11798:	9abe                	add	s5,s5,a5
   1179a:	4981                	li	s3,0
   1179c:	4d81                	li	s11,0
   1179e:	4a01                	li	s4,0
   117a0:	6721                	lui	a4,0x8
   117a2:	0304d793          	srl	a5,s1,0x30
   117a6:	56fd                	li	a3,-1
   117a8:	177d                	add	a4,a4,-1 # 7fff <__abi_tag-0x8295>
   117aa:	0106d413          	srl	s0,a3,0x10
   117ae:	8ff9                	and	a5,a5,a4
   117b0:	8c65                	and	s0,s0,s1
   117b2:	896a                	mv	s2,s10
   117b4:	90fd                	srl	s1,s1,0x3f
   117b6:	cfd1                	beqz	a5,11852 <__divtf3+0x11c>
   117b8:	0007861b          	sext.w	a2,a5
   117bc:	06e78d63          	beq	a5,a4,11836 <__divtf3+0x100>
   117c0:	040e                	sll	s0,s0,0x3
   117c2:	03dd5713          	srl	a4,s10,0x3d
   117c6:	76f1                	lui	a3,0xffffc
   117c8:	8f41                	or	a4,a4,s0
   117ca:	0685                	add	a3,a3,1 # ffffffffffffc001 <__global_pointer$+0xfffffffffffe6801>
   117cc:	4405                	li	s0,1
   117ce:	97b6                	add	a5,a5,a3
   117d0:	144e                	sll	s0,s0,0x33
   117d2:	8c59                	or	s0,s0,a4
   117d4:	003d1913          	sll	s2,s10,0x3
   117d8:	40fa8ab3          	sub	s5,s5,a5
   117dc:	4601                	li	a2,0
   117de:	47bd                	li	a5,15
   117e0:	009bc733          	xor	a4,s7,s1
   117e4:	1b37e663          	bltu	a5,s3,11990 <__divtf3+0x25a>
   117e8:	00002697          	auipc	a3,0x2
   117ec:	e0868693          	add	a3,a3,-504 # 135f0 <__clzdi2+0xa0>
   117f0:	098a                	sll	s3,s3,0x2
   117f2:	99b6                	add	s3,s3,a3
   117f4:	0009a783          	lw	a5,0(s3)
   117f8:	97b6                	add	a5,a5,a3
   117fa:	8782                	jr	a5
   117fc:	0014f713          	and	a4,s1,1
   11800:	4681                	li	a3,0
   11802:	4781                	li	a5,0
   11804:	4501                	li	a0,0
   11806:	073e                	sll	a4,a4,0xf
   11808:	01079593          	sll	a1,a5,0x10
   1180c:	8f55                	or	a4,a4,a3
   1180e:	1742                	sll	a4,a4,0x30
   11810:	81c1                	srl	a1,a1,0x10
   11812:	8dd9                	or	a1,a1,a4
   11814:	140a1d63          	bnez	s4,1196e <__divtf3+0x238>
   11818:	70a6                	ld	ra,104(sp)
   1181a:	7406                	ld	s0,96(sp)
   1181c:	64e6                	ld	s1,88(sp)
   1181e:	6946                	ld	s2,80(sp)
   11820:	69a6                	ld	s3,72(sp)
   11822:	6a06                	ld	s4,64(sp)
   11824:	7ae2                	ld	s5,56(sp)
   11826:	7b42                	ld	s6,48(sp)
   11828:	7ba2                	ld	s7,40(sp)
   1182a:	7c02                	ld	s8,32(sp)
   1182c:	6ce2                	ld	s9,24(sp)
   1182e:	6d42                	ld	s10,16(sp)
   11830:	6da2                	ld	s11,8(sp)
   11832:	6165                	add	sp,sp,112
   11834:	8082                	ret
   11836:	01a467b3          	or	a5,s0,s10
   1183a:	40ca8ab3          	sub	s5,s5,a2
   1183e:	0e078d63          	beqz	a5,11938 <__divtf3+0x202>
   11842:	82c5                	srl	a3,a3,0x11
   11844:	0039e993          	or	s3,s3,3
   11848:	460d                	li	a2,3
   1184a:	f886eae3          	bltu	a3,s0,117de <__divtf3+0xa8>
   1184e:	4a41                	li	s4,16
   11850:	b779                	j	117de <__divtf3+0xa8>
   11852:	01a467b3          	or	a5,s0,s10
   11856:	cbf9                	beqz	a5,1192c <__divtf3+0x1f6>
   11858:	3c040d63          	beqz	s0,11c32 <__divtf3+0x4fc>
   1185c:	8522                	mv	a0,s0
   1185e:	4f3010ef          	jal	13550 <__clzdi2>
   11862:	2501                	sext.w	a0,a0
   11864:	ff150713          	add	a4,a0,-15
   11868:	03d00793          	li	a5,61
   1186c:	0037091b          	addw	s2,a4,3
   11870:	9f99                	subw	a5,a5,a4
   11872:	01241433          	sll	s0,s0,s2
   11876:	00fd57b3          	srl	a5,s10,a5
   1187a:	8c5d                	or	s0,s0,a5
   1187c:	012d1933          	sll	s2,s10,s2
   11880:	77f1                	lui	a5,0xffffc
   11882:	07c5                	add	a5,a5,17 # ffffffffffffc011 <__global_pointer$+0xfffffffffffe6811>
   11884:	8f89                	sub	a5,a5,a0
   11886:	40fa8ab3          	sub	s5,s5,a5
   1188a:	4601                	li	a2,0
   1188c:	bf89                	j	117de <__divtf3+0xa8>
   1188e:	00a46b33          	or	s6,s0,a0
   11892:	892a                	mv	s2,a0
   11894:	060b0c63          	beqz	s6,1190c <__divtf3+0x1d6>
   11898:	36040d63          	beqz	s0,11c12 <__divtf3+0x4dc>
   1189c:	8522                	mv	a0,s0
   1189e:	4b3010ef          	jal	13550 <__clzdi2>
   118a2:	2501                	sext.w	a0,a0
   118a4:	ff150793          	add	a5,a0,-15
   118a8:	03d00b13          	li	s6,61
   118ac:	00378c9b          	addw	s9,a5,3
   118b0:	40fb0b3b          	subw	s6,s6,a5
   118b4:	01941433          	sll	s0,s0,s9
   118b8:	01695b33          	srl	s6,s2,s6
   118bc:	008b6b33          	or	s6,s6,s0
   118c0:	01991cb3          	sll	s9,s2,s9
   118c4:	7af1                	lui	s5,0xffffc
   118c6:	0ac5                	add	s5,s5,17 # ffffffffffffc011 <__global_pointer$+0xfffffffffffe6811>
   118c8:	40aa8ab3          	sub	s5,s5,a0
   118cc:	4981                	li	s3,0
   118ce:	4d81                	li	s11,0
   118d0:	4a01                	li	s4,0
   118d2:	b5f9                	j	117a0 <__divtf3+0x6a>
   118d4:	00a46b33          	or	s6,s0,a0
   118d8:	040b1063          	bnez	s6,11918 <__divtf3+0x1e2>
   118dc:	4c81                	li	s9,0
   118de:	49a1                	li	s3,8
   118e0:	4d89                	li	s11,2
   118e2:	4a01                	li	s4,0
   118e4:	bd75                	j	117a0 <__divtf3+0x6a>
   118e6:	84de                	mv	s1,s7
   118e8:	845a                	mv	s0,s6
   118ea:	8966                	mv	s2,s9
   118ec:	4785                	li	a5,1
   118ee:	f0fd87e3          	beq	s11,a5,117fc <__divtf3+0xc6>
   118f2:	240d8c63          	beqz	s11,11b4a <__divtf3+0x414>
   118f6:	4709                	li	a4,2
   118f8:	04ed8663          	beq	s11,a4,11944 <__divtf3+0x20e>
   118fc:	66a1                	lui	a3,0x8
   118fe:	4701                	li	a4,0
   11900:	16fd                	add	a3,a3,-1 # 7fff <__abi_tag-0x8295>
   11902:	17be                	sll	a5,a5,0x2f
   11904:	4501                	li	a0,0
   11906:	b701                	j	11806 <__divtf3+0xd0>
   11908:	8db2                	mv	s11,a2
   1190a:	b7cd                	j	118ec <__divtf3+0x1b6>
   1190c:	4c81                	li	s9,0
   1190e:	4991                	li	s3,4
   11910:	4a81                	li	s5,0
   11912:	4d85                	li	s11,1
   11914:	4a01                	li	s4,0
   11916:	b569                	j	117a0 <__divtf3+0x6a>
   11918:	4a05                	li	s4,1
   1191a:	1a3e                	sll	s4,s4,0x2f
   1191c:	01443a33          	sltu	s4,s0,s4
   11920:	004a1a1b          	sllw	s4,s4,0x4
   11924:	8b22                	mv	s6,s0
   11926:	49b1                	li	s3,12
   11928:	4d8d                	li	s11,3
   1192a:	bd9d                	j	117a0 <__divtf3+0x6a>
   1192c:	0019e993          	or	s3,s3,1
   11930:	4401                	li	s0,0
   11932:	4901                	li	s2,0
   11934:	4605                	li	a2,1
   11936:	b565                	j	117de <__divtf3+0xa8>
   11938:	0029e993          	or	s3,s3,2
   1193c:	4401                	li	s0,0
   1193e:	4901                	li	s2,0
   11940:	4609                	li	a2,2
   11942:	bd71                	j	117de <__divtf3+0xa8>
   11944:	0014f713          	and	a4,s1,1
   11948:	66a1                	lui	a3,0x8
   1194a:	16fd                	add	a3,a3,-1 # 7fff <__abi_tag-0x8295>
   1194c:	4781                	li	a5,0
   1194e:	4501                	li	a0,0
   11950:	bd5d                	j	11806 <__divtf3+0xd0>
   11952:	66a1                	lui	a3,0x8
   11954:	4785                	li	a5,1
   11956:	4701                	li	a4,0
   11958:	16fd                	add	a3,a3,-1 # 7fff <__abi_tag-0x8295>
   1195a:	17be                	sll	a5,a5,0x2f
   1195c:	4501                	li	a0,0
   1195e:	4a41                	li	s4,16
   11960:	073e                	sll	a4,a4,0xf
   11962:	01079593          	sll	a1,a5,0x10
   11966:	8f55                	or	a4,a4,a3
   11968:	1742                	sll	a4,a4,0x30
   1196a:	81c1                	srl	a1,a1,0x10
   1196c:	8dd9                	or	a1,a1,a4
   1196e:	001a2073          	csrs	fflags,s4
   11972:	b55d                	j	11818 <__divtf3+0xe2>
   11974:	66a1                	lui	a3,0x8
   11976:	008a6a13          	or	s4,s4,8
   1197a:	16fd                	add	a3,a3,-1 # 7fff <__abi_tag-0x8295>
   1197c:	4781                	li	a5,0
   1197e:	4501                	li	a0,0
   11980:	b7c5                	j	11960 <__divtf3+0x22a>
   11982:	66a1                	lui	a3,0x8
   11984:	4785                	li	a5,1
   11986:	4701                	li	a4,0
   11988:	16fd                	add	a3,a3,-1 # 7fff <__abi_tag-0x8295>
   1198a:	17be                	sll	a5,a5,0x2f
   1198c:	4501                	li	a0,0
   1198e:	bda5                	j	11806 <__divtf3+0xd0>
   11990:	33646e63          	bltu	s0,s6,11ccc <__divtf3+0x596>
   11994:	328b0a63          	beq	s6,s0,11cc8 <__divtf3+0x592>
   11998:	86e6                	mv	a3,s9
   1199a:	1afd                	add	s5,s5,-1
   1199c:	4c81                	li	s9,0
   1199e:	00c41513          	sll	a0,s0,0xc
   119a2:	02055593          	srl	a1,a0,0x20
   119a6:	02bb5433          	divu	s0,s6,a1
   119aa:	03495613          	srl	a2,s2,0x34
   119ae:	8e49                	or	a2,a2,a0
   119b0:	02061813          	sll	a6,a2,0x20
   119b4:	02085813          	srl	a6,a6,0x20
   119b8:	0206d793          	srl	a5,a3,0x20
   119bc:	00c91893          	sll	a7,s2,0xc
   119c0:	02bb7b33          	remu	s6,s6,a1
   119c4:	02880533          	mul	a0,a6,s0
   119c8:	1b02                	sll	s6,s6,0x20
   119ca:	0167e7b3          	or	a5,a5,s6
   119ce:	00a7fb63          	bgeu	a5,a0,119e4 <__divtf3+0x2ae>
   119d2:	97b2                	add	a5,a5,a2
   119d4:	fff40313          	add	t1,s0,-1
   119d8:	38c7e263          	bltu	a5,a2,11d5c <__divtf3+0x626>
   119dc:	38a7f063          	bgeu	a5,a0,11d5c <__divtf3+0x626>
   119e0:	1479                	add	s0,s0,-2
   119e2:	97b2                	add	a5,a5,a2
   119e4:	8f89                	sub	a5,a5,a0
   119e6:	02b7d533          	divu	a0,a5,a1
   119ea:	1682                	sll	a3,a3,0x20
   119ec:	9281                	srl	a3,a3,0x20
   119ee:	02b7f7b3          	remu	a5,a5,a1
   119f2:	02a80fb3          	mul	t6,a6,a0
   119f6:	1782                	sll	a5,a5,0x20
   119f8:	8fd5                	or	a5,a5,a3
   119fa:	01f7fb63          	bgeu	a5,t6,11a10 <__divtf3+0x2da>
   119fe:	97b2                	add	a5,a5,a2
   11a00:	fff50693          	add	a3,a0,-1
   11a04:	34c7ea63          	bltu	a5,a2,11d58 <__divtf3+0x622>
   11a08:	35f7f863          	bgeu	a5,t6,11d58 <__divtf3+0x622>
   11a0c:	1579                	add	a0,a0,-2
   11a0e:	97b2                	add	a5,a5,a2
   11a10:	1402                	sll	s0,s0,0x20
   11a12:	537d                	li	t1,-1
   11a14:	8c49                	or	s0,s0,a0
   11a16:	02035313          	srl	t1,t1,0x20
   11a1a:	00647533          	and	a0,s0,t1
   11a1e:	02045e93          	srl	t4,s0,0x20
   11a22:	0208de13          	srl	t3,a7,0x20
   11a26:	0068f333          	and	t1,a7,t1
   11a2a:	02650f33          	mul	t5,a0,t1
   11a2e:	41f787b3          	sub	a5,a5,t6
   11a32:	02ae0533          	mul	a0,t3,a0
   11a36:	020f5693          	srl	a3,t5,0x20
   11a3a:	026e8fb3          	mul	t6,t4,t1
   11a3e:	957e                	add	a0,a0,t6
   11a40:	96aa                	add	a3,a3,a0
   11a42:	03ce8eb3          	mul	t4,t4,t3
   11a46:	01f6f563          	bgeu	a3,t6,11a50 <__divtf3+0x31a>
   11a4a:	4505                	li	a0,1
   11a4c:	1502                	sll	a0,a0,0x20
   11a4e:	9eaa                	add	t4,t4,a0
   11a50:	5ffd                	li	t6,-1
   11a52:	020fdf93          	srl	t6,t6,0x20
   11a56:	0206d513          	srl	a0,a3,0x20
   11a5a:	01f6f6b3          	and	a3,a3,t6
   11a5e:	1682                	sll	a3,a3,0x20
   11a60:	01ff7f33          	and	t5,t5,t6
   11a64:	9576                	add	a0,a0,t4
   11a66:	96fa                	add	a3,a3,t5
   11a68:	22a7ee63          	bltu	a5,a0,11ca4 <__divtf3+0x56e>
   11a6c:	22a78a63          	beq	a5,a0,11ca0 <__divtf3+0x56a>
   11a70:	40dc86b3          	sub	a3,s9,a3
   11a74:	8f89                	sub	a5,a5,a0
   11a76:	00dcbcb3          	sltu	s9,s9,a3
   11a7a:	419787b3          	sub	a5,a5,s9
   11a7e:	84ba                	mv	s1,a4
   11a80:	30f60c63          	beq	a2,a5,11d98 <__divtf3+0x662>
   11a84:	02b7d933          	divu	s2,a5,a1
   11a88:	0206de93          	srl	t4,a3,0x20
   11a8c:	02b7f7b3          	remu	a5,a5,a1
   11a90:	03280533          	mul	a0,a6,s2
   11a94:	1782                	sll	a5,a5,0x20
   11a96:	00fee7b3          	or	a5,t4,a5
   11a9a:	00a7fb63          	bgeu	a5,a0,11ab0 <__divtf3+0x37a>
   11a9e:	97b2                	add	a5,a5,a2
   11aa0:	fff90e93          	add	t4,s2,-1
   11aa4:	32c7ee63          	bltu	a5,a2,11de0 <__divtf3+0x6aa>
   11aa8:	32a7fc63          	bgeu	a5,a0,11de0 <__divtf3+0x6aa>
   11aac:	1979                	add	s2,s2,-2
   11aae:	97b2                	add	a5,a5,a2
   11ab0:	8f89                	sub	a5,a5,a0
   11ab2:	02b7d533          	divu	a0,a5,a1
   11ab6:	1682                	sll	a3,a3,0x20
   11ab8:	9281                	srl	a3,a3,0x20
   11aba:	02b7f7b3          	remu	a5,a5,a1
   11abe:	02a80833          	mul	a6,a6,a0
   11ac2:	1782                	sll	a5,a5,0x20
   11ac4:	8edd                	or	a3,a3,a5
   11ac6:	0106fb63          	bgeu	a3,a6,11adc <__divtf3+0x3a6>
   11aca:	96b2                	add	a3,a3,a2
   11acc:	fff50793          	add	a5,a0,-1
   11ad0:	30c6e663          	bltu	a3,a2,11ddc <__divtf3+0x6a6>
   11ad4:	3106f463          	bgeu	a3,a6,11ddc <__divtf3+0x6a6>
   11ad8:	1579                	add	a0,a0,-2
   11ada:	96b2                	add	a3,a3,a2
   11adc:	1902                	sll	s2,s2,0x20
   11ade:	00a96933          	or	s2,s2,a0
   11ae2:	02091593          	sll	a1,s2,0x20
   11ae6:	02095e93          	srl	t4,s2,0x20
   11aea:	9181                	srl	a1,a1,0x20
   11aec:	02b30533          	mul	a0,t1,a1
   11af0:	410686b3          	sub	a3,a3,a6
   11af4:	02be05b3          	mul	a1,t3,a1
   11af8:	02055793          	srl	a5,a0,0x20
   11afc:	026e8333          	mul	t1,t4,t1
   11b00:	959a                	add	a1,a1,t1
   11b02:	97ae                	add	a5,a5,a1
   11b04:	03de0e33          	mul	t3,t3,t4
   11b08:	0067f563          	bgeu	a5,t1,11b12 <__divtf3+0x3dc>
   11b0c:	4585                	li	a1,1
   11b0e:	1582                	sll	a1,a1,0x20
   11b10:	9e2e                	add	t3,t3,a1
   11b12:	587d                	li	a6,-1
   11b14:	02085813          	srl	a6,a6,0x20
   11b18:	0207d593          	srl	a1,a5,0x20
   11b1c:	0107f7b3          	and	a5,a5,a6
   11b20:	1782                	sll	a5,a5,0x20
   11b22:	01057533          	and	a0,a0,a6
   11b26:	95f2                	add	a1,a1,t3
   11b28:	97aa                	add	a5,a5,a0
   11b2a:	20b6fc63          	bgeu	a3,a1,11d42 <__divtf3+0x60c>
   11b2e:	96b2                	add	a3,a3,a2
   11b30:	fff90813          	add	a6,s2,-1
   11b34:	8536                	mv	a0,a3
   11b36:	2cc6e963          	bltu	a3,a2,11e08 <__divtf3+0x6d2>
   11b3a:	2ab6e563          	bltu	a3,a1,11de4 <__divtf3+0x6ae>
   11b3e:	32b68d63          	beq	a3,a1,11e78 <__divtf3+0x742>
   11b42:	8942                	mv	s2,a6
   11b44:	00196913          	or	s2,s2,1
   11b48:	a019                	j	11b4e <__divtf3+0x418>
   11b4a:	0014f713          	and	a4,s1,1
   11b4e:	6611                	lui	a2,0x4
   11b50:	167d                	add	a2,a2,-1 # 3fff <__abi_tag-0xc295>
   11b52:	9656                	add	a2,a2,s5
   11b54:	04c05263          	blez	a2,11b98 <__divtf3+0x462>
   11b58:	00797793          	and	a5,s2,7
   11b5c:	0e079d63          	bnez	a5,11c56 <__divtf3+0x520>
   11b60:	03445793          	srl	a5,s0,0x34
   11b64:	8b85                	and	a5,a5,1
   11b66:	c799                	beqz	a5,11b74 <__divtf3+0x43e>
   11b68:	57fd                	li	a5,-1
   11b6a:	17d2                	sll	a5,a5,0x34
   11b6c:	17fd                	add	a5,a5,-1
   11b6e:	6611                	lui	a2,0x4
   11b70:	8c7d                	and	s0,s0,a5
   11b72:	9656                	add	a2,a2,s5
   11b74:	66a1                	lui	a3,0x8
   11b76:	ffe68793          	add	a5,a3,-2 # 7ffe <__abi_tag-0x8296>
   11b7a:	10c7c463          	blt	a5,a2,11c82 <__divtf3+0x54c>
   11b7e:	16fd                	add	a3,a3,-1
   11b80:	8ef1                	and	a3,a3,a2
   11b82:	00395593          	srl	a1,s2,0x3
   11b86:	03d41513          	sll	a0,s0,0x3d
   11b8a:	00d41793          	sll	a5,s0,0xd
   11b8e:	16c2                	sll	a3,a3,0x30
   11b90:	8d4d                	or	a0,a0,a1
   11b92:	83c1                	srl	a5,a5,0x10
   11b94:	92c1                	srl	a3,a3,0x30
   11b96:	b985                	j	11806 <__divtf3+0xd0>
   11b98:	14060363          	beqz	a2,11cde <__divtf3+0x5a8>
   11b9c:	4785                	li	a5,1
   11b9e:	40c78633          	sub	a2,a5,a2
   11ba2:	07400693          	li	a3,116
   11ba6:	04c6c263          	blt	a3,a2,11bea <__divtf3+0x4b4>
   11baa:	03f00693          	li	a3,63
   11bae:	0006079b          	sext.w	a5,a2
   11bb2:	2cc6d963          	bge	a3,a2,11e84 <__divtf3+0x74e>
   11bb6:	fc07859b          	addw	a1,a5,-64
   11bba:	04000693          	li	a3,64
   11bbe:	00b455b3          	srl	a1,s0,a1
   11bc2:	00d60a63          	beq	a2,a3,11bd6 <__divtf3+0x4a0>
   11bc6:	08000693          	li	a3,128
   11bca:	40f687bb          	subw	a5,a3,a5
   11bce:	00f417b3          	sll	a5,s0,a5
   11bd2:	00f96933          	or	s2,s2,a5
   11bd6:	012036b3          	snez	a3,s2
   11bda:	8ecd                	or	a3,a3,a1
   11bdc:	0076f793          	and	a5,a3,7
   11be0:	24078263          	beqz	a5,11e24 <__divtf3+0x6ee>
   11be4:	4405                	li	s0,1
   11be6:	4601                	li	a2,0
   11be8:	a22d                	j	11d12 <__divtf3+0x5dc>
   11bea:	00896533          	or	a0,s2,s0
   11bee:	cd09                	beqz	a0,11c08 <__divtf3+0x4d2>
   11bf0:	4689                	li	a3,2
   11bf2:	001a6a13          	or	s4,s4,1
   11bf6:	8526                	mv	a0,s1
   11bf8:	00dc0863          	beq	s8,a3,11c08 <__divtf3+0x4d2>
   11bfc:	468d                	li	a3,3
   11bfe:	4501                	li	a0,0
   11c00:	00dc1463          	bne	s8,a3,11c08 <__divtf3+0x4d2>
   11c04:	40978533          	sub	a0,a5,s1
   11c08:	002a6a13          	or	s4,s4,2
   11c0c:	4681                	li	a3,0
   11c0e:	4781                	li	a5,0
   11c10:	bb81                	j	11960 <__divtf3+0x22a>
   11c12:	13f010ef          	jal	13550 <__clzdi2>
   11c16:	0405051b          	addw	a0,a0,64
   11c1a:	ff150793          	add	a5,a0,-15
   11c1e:	03c00713          	li	a4,60
   11c22:	c8f753e3          	bge	a4,a5,118a8 <__divtf3+0x172>
   11c26:	fc37879b          	addw	a5,a5,-61
   11c2a:	00fc9b33          	sll	s6,s9,a5
   11c2e:	4c81                	li	s9,0
   11c30:	b951                	j	118c4 <__divtf3+0x18e>
   11c32:	856a                	mv	a0,s10
   11c34:	11d010ef          	jal	13550 <__clzdi2>
   11c38:	0405051b          	addw	a0,a0,64
   11c3c:	ff150713          	add	a4,a0,-15
   11c40:	03c00793          	li	a5,60
   11c44:	c2e7d2e3          	bge	a5,a4,11868 <__divtf3+0x132>
   11c48:	fc37071b          	addw	a4,a4,-61
   11c4c:	00ed1733          	sll	a4,s10,a4
   11c50:	843a                	mv	s0,a4
   11c52:	4901                	li	s2,0
   11c54:	b135                	j	11880 <__divtf3+0x14a>
   11c56:	4789                	li	a5,2
   11c58:	001a6a13          	or	s4,s4,1
   11c5c:	1afc0363          	beq	s8,a5,11e02 <__divtf3+0x6cc>
   11c60:	478d                	li	a5,3
   11c62:	10fc0663          	beq	s8,a5,11d6e <__divtf3+0x638>
   11c66:	ee0c1de3          	bnez	s8,11b60 <__divtf3+0x42a>
   11c6a:	00f97793          	and	a5,s2,15
   11c6e:	4691                	li	a3,4
   11c70:	eed788e3          	beq	a5,a3,11b60 <__divtf3+0x42a>
   11c74:	00490793          	add	a5,s2,4
   11c78:	0127b933          	sltu	s2,a5,s2
   11c7c:	944a                	add	s0,s0,s2
   11c7e:	893e                	mv	s2,a5
   11c80:	b5c5                	j	11b60 <__divtf3+0x42a>
   11c82:	4609                	li	a2,2
   11c84:	0ccc0e63          	beq	s8,a2,11d60 <__divtf3+0x62a>
   11c88:	460d                	li	a2,3
   11c8a:	0ecc0b63          	beq	s8,a2,11d80 <__divtf3+0x64a>
   11c8e:	0c0c0a63          	beqz	s8,11d62 <__divtf3+0x62c>
   11c92:	86be                	mv	a3,a5
   11c94:	57fd                	li	a5,-1
   11c96:	83c1                	srl	a5,a5,0x10
   11c98:	557d                	li	a0,-1
   11c9a:	005a6a13          	or	s4,s4,5
   11c9e:	b1c9                	j	11960 <__divtf3+0x22a>
   11ca0:	dcdcf8e3          	bgeu	s9,a3,11a70 <__divtf3+0x33a>
   11ca4:	011c8eb3          	add	t4,s9,a7
   11ca8:	019ebf33          	sltu	t5,t4,s9
   11cac:	00cf0fb3          	add	t6,t5,a2
   11cb0:	97fe                	add	a5,a5,t6
   11cb2:	8cf6                	mv	s9,t4
   11cb4:	fff40f93          	add	t6,s0,-1
   11cb8:	08f67a63          	bgeu	a2,a5,11d4c <__divtf3+0x616>
   11cbc:	0ca7e663          	bltu	a5,a0,11d88 <__divtf3+0x652>
   11cc0:	0cf50263          	beq	a0,a5,11d84 <__divtf3+0x64e>
   11cc4:	847e                	mv	s0,t6
   11cc6:	b36d                	j	11a70 <__divtf3+0x33a>
   11cc8:	cd2ce8e3          	bltu	s9,s2,11998 <__divtf3+0x262>
   11ccc:	03fb1693          	sll	a3,s6,0x3f
   11cd0:	001cd613          	srl	a2,s9,0x1
   11cd4:	001b5b13          	srl	s6,s6,0x1
   11cd8:	8ed1                	or	a3,a3,a2
   11cda:	1cfe                	sll	s9,s9,0x3f
   11cdc:	b1c9                	j	1199e <__divtf3+0x268>
   11cde:	00797793          	and	a5,s2,7
   11ce2:	85a2                	mv	a1,s0
   11ce4:	e7e9                	bnez	a5,11dae <__divtf3+0x678>
   11ce6:	9051                	srl	s0,s0,0x34
   11ce8:	00144413          	xor	s0,s0,1
   11cec:	8805                	and	s0,s0,1
   11cee:	03f00613          	li	a2,63
   11cf2:	4785                	li	a5,1
   11cf4:	00c596b3          	sll	a3,a1,a2
   11cf8:	00f95533          	srl	a0,s2,a5
   11cfc:	00c91633          	sll	a2,s2,a2
   11d00:	8ec9                	or	a3,a3,a0
   11d02:	00c03633          	snez	a2,a2
   11d06:	8ed1                	or	a3,a3,a2
   11d08:	0076f513          	and	a0,a3,7
   11d0c:	00f5d633          	srl	a2,a1,a5
   11d10:	c919                	beqz	a0,11d26 <__divtf3+0x5f0>
   11d12:	4789                	li	a5,2
   11d14:	001a6a13          	or	s4,s4,1
   11d18:	14fc0d63          	beq	s8,a5,11e72 <__divtf3+0x73c>
   11d1c:	478d                	li	a5,3
   11d1e:	14fc0163          	beq	s8,a5,11e60 <__divtf3+0x72a>
   11d22:	100c0663          	beqz	s8,11e2e <__divtf3+0x6f8>
   11d26:	03365793          	srl	a5,a2,0x33
   11d2a:	8b85                	and	a5,a5,1
   11d2c:	c3f5                	beqz	a5,11e10 <__divtf3+0x6da>
   11d2e:	001a6a13          	or	s4,s4,1
   11d32:	4685                	li	a3,1
   11d34:	4781                	li	a5,0
   11d36:	4501                	li	a0,0
   11d38:	c20404e3          	beqz	s0,11960 <__divtf3+0x22a>
   11d3c:	002a6a13          	or	s4,s4,2
   11d40:	b105                	j	11960 <__divtf3+0x22a>
   11d42:	e0b691e3          	bne	a3,a1,11b44 <__divtf3+0x40e>
   11d46:	e00784e3          	beqz	a5,11b4e <__divtf3+0x418>
   11d4a:	b3d5                	j	11b2e <__divtf3+0x3f8>
   11d4c:	f6f61ce3          	bne	a2,a5,11cc4 <__divtf3+0x58e>
   11d50:	f60f06e3          	beqz	t5,11cbc <__divtf3+0x586>
   11d54:	847e                	mv	s0,t6
   11d56:	bb29                	j	11a70 <__divtf3+0x33a>
   11d58:	8536                	mv	a0,a3
   11d5a:	b95d                	j	11a10 <__divtf3+0x2da>
   11d5c:	841a                	mv	s0,t1
   11d5e:	b159                	j	119e4 <__divtf3+0x2ae>
   11d60:	d88d                	beqz	s1,11c92 <__divtf3+0x55c>
   11d62:	16fd                	add	a3,a3,-1
   11d64:	4781                	li	a5,0
   11d66:	4501                	li	a0,0
   11d68:	005a6a13          	or	s4,s4,5
   11d6c:	bed5                	j	11960 <__divtf3+0x22a>
   11d6e:	de0499e3          	bnez	s1,11b60 <__divtf3+0x42a>
   11d72:	00890793          	add	a5,s2,8
   11d76:	0127b933          	sltu	s2,a5,s2
   11d7a:	944a                	add	s0,s0,s2
   11d7c:	893e                	mv	s2,a5
   11d7e:	b3cd                	j	11b60 <__divtf3+0x42a>
   11d80:	f889                	bnez	s1,11c92 <__divtf3+0x55c>
   11d82:	b7c5                	j	11d62 <__divtf3+0x62c>
   11d84:	f4def0e3          	bgeu	t4,a3,11cc4 <__divtf3+0x58e>
   11d88:	9ec6                	add	t4,t4,a7
   11d8a:	011ebf33          	sltu	t5,t4,a7
   11d8e:	9f32                	add	t5,t5,a2
   11d90:	1479                	add	s0,s0,-2
   11d92:	8cf6                	mv	s9,t4
   11d94:	97fa                	add	a5,a5,t5
   11d96:	b9e9                	j	11a70 <__divtf3+0x33a>
   11d98:	77f1                	lui	a5,0xffffc
   11d9a:	6611                	lui	a2,0x4
   11d9c:	167d                	add	a2,a2,-1 # 3fff <__abi_tag-0xc295>
   11d9e:	0789                	add	a5,a5,2 # ffffffffffffc002 <__global_pointer$+0xfffffffffffe6802>
   11da0:	9656                	add	a2,a2,s5
   11da2:	597d                	li	s2,-1
   11da4:	eafad9e3          	bge	s5,a5,11c56 <__divtf3+0x520>
   11da8:	85a2                	mv	a1,s0
   11daa:	de0619e3          	bnez	a2,11b9c <__divtf3+0x466>
   11dae:	4789                	li	a5,2
   11db0:	001a6a13          	or	s4,s4,1
   11db4:	0afc0363          	beq	s8,a5,11e5a <__divtf3+0x724>
   11db8:	478d                	li	a5,3
   11dba:	08fc0663          	beq	s8,a5,11e46 <__divtf3+0x710>
   11dbe:	f20c14e3          	bnez	s8,11ce6 <__divtf3+0x5b0>
   11dc2:	00f97793          	and	a5,s2,15
   11dc6:	4691                	li	a3,4
   11dc8:	f0d78fe3          	beq	a5,a3,11ce6 <__divtf3+0x5b0>
   11dcc:	ffc93793          	sltiu	a5,s2,-4
   11dd0:	0017c793          	xor	a5,a5,1
   11dd4:	1782                	sll	a5,a5,0x20
   11dd6:	9381                	srl	a5,a5,0x20
   11dd8:	943e                	add	s0,s0,a5
   11dda:	b731                	j	11ce6 <__divtf3+0x5b0>
   11ddc:	853e                	mv	a0,a5
   11dde:	b9fd                	j	11adc <__divtf3+0x3a6>
   11de0:	8976                	mv	s2,t4
   11de2:	b1f9                	j	11ab0 <__divtf3+0x37a>
   11de4:	00189813          	sll	a6,a7,0x1
   11de8:	01183533          	sltu	a0,a6,a7
   11dec:	9532                	add	a0,a0,a2
   11dee:	9536                	add	a0,a0,a3
   11df0:	1979                	add	s2,s2,-2
   11df2:	88c2                	mv	a7,a6
   11df4:	d4b518e3          	bne	a0,a1,11b44 <__divtf3+0x40e>
   11df8:	d5178be3          	beq	a5,a7,11b4e <__divtf3+0x418>
   11dfc:	00196913          	or	s2,s2,1
   11e00:	b3b9                	j	11b4e <__divtf3+0x418>
   11e02:	d4048fe3          	beqz	s1,11b60 <__divtf3+0x42a>
   11e06:	b7b5                	j	11d72 <__divtf3+0x63c>
   11e08:	8942                	mv	s2,a6
   11e0a:	feb507e3          	beq	a0,a1,11df8 <__divtf3+0x6c2>
   11e0e:	bb1d                	j	11b44 <__divtf3+0x40e>
   11e10:	00d61793          	sll	a5,a2,0xd
   11e14:	828d                	srl	a3,a3,0x3
   11e16:	1676                	sll	a2,a2,0x3d
   11e18:	83c1                	srl	a5,a5,0x10
   11e1a:	00d66533          	or	a0,a2,a3
   11e1e:	e82d                	bnez	s0,11e90 <__divtf3+0x75a>
   11e20:	4681                	li	a3,0
   11e22:	b2d5                	j	11806 <__divtf3+0xd0>
   11e24:	0036d513          	srl	a0,a3,0x3
   11e28:	4781                	li	a5,0
   11e2a:	4681                	li	a3,0
   11e2c:	bae9                	j	11806 <__divtf3+0xd0>
   11e2e:	00f6f793          	and	a5,a3,15
   11e32:	4591                	li	a1,4
   11e34:	eeb789e3          	beq	a5,a1,11d26 <__divtf3+0x5f0>
   11e38:	00468793          	add	a5,a3,4
   11e3c:	00d7b6b3          	sltu	a3,a5,a3
   11e40:	9636                	add	a2,a2,a3
   11e42:	86be                	mv	a3,a5
   11e44:	b5cd                	j	11d26 <__divtf3+0x5f0>
   11e46:	ea0490e3          	bnez	s1,11ce6 <__divtf3+0x5b0>
   11e4a:	ff893793          	sltiu	a5,s2,-8
   11e4e:	0017c793          	xor	a5,a5,1
   11e52:	1782                	sll	a5,a5,0x20
   11e54:	9381                	srl	a5,a5,0x20
   11e56:	943e                	add	s0,s0,a5
   11e58:	b579                	j	11ce6 <__divtf3+0x5b0>
   11e5a:	e80486e3          	beqz	s1,11ce6 <__divtf3+0x5b0>
   11e5e:	b7f5                	j	11e4a <__divtf3+0x714>
   11e60:	ec0493e3          	bnez	s1,11d26 <__divtf3+0x5f0>
   11e64:	00868793          	add	a5,a3,8
   11e68:	00d7b6b3          	sltu	a3,a5,a3
   11e6c:	9636                	add	a2,a2,a3
   11e6e:	86be                	mv	a3,a5
   11e70:	bd5d                	j	11d26 <__divtf3+0x5f0>
   11e72:	ea048ae3          	beqz	s1,11d26 <__divtf3+0x5f0>
   11e76:	b7fd                	j	11e64 <__divtf3+0x72e>
   11e78:	f6f8e6e3          	bltu	a7,a5,11de4 <__divtf3+0x6ae>
   11e7c:	8942                	mv	s2,a6
   11e7e:	f7179fe3          	bne	a5,a7,11dfc <__divtf3+0x6c6>
   11e82:	b1f1                	j	11b4e <__divtf3+0x418>
   11e84:	04000613          	li	a2,64
   11e88:	85a2                	mv	a1,s0
   11e8a:	9e1d                	subw	a2,a2,a5
   11e8c:	4405                	li	s0,1
   11e8e:	b59d                	j	11cf4 <__divtf3+0x5be>
   11e90:	001a7613          	and	a2,s4,1
   11e94:	4681                	li	a3,0
   11e96:	960608e3          	beqz	a2,11806 <__divtf3+0xd0>
   11e9a:	002a6a13          	or	s4,s4,2
   11e9e:	b4c9                	j	11960 <__divtf3+0x22a>

0000000000011ea0 <__letf2>:
   11ea0:	832a                	mv	t1,a0
   11ea2:	002027f3          	frrm	a5
   11ea6:	6721                	lui	a4,0x8
   11ea8:	177d                	add	a4,a4,-1 # 7fff <__abi_tag-0x8295>
   11eaa:	0305d813          	srl	a6,a1,0x30
   11eae:	57fd                	li	a5,-1
   11eb0:	83c1                	srl	a5,a5,0x10
   11eb2:	0306d893          	srl	a7,a3,0x30
   11eb6:	00e87833          	and	a6,a6,a4
   11eba:	00f5fe33          	and	t3,a1,a5
   11ebe:	00e8f8b3          	and	a7,a7,a4
   11ec2:	91fd                	srl	a1,a1,0x3f
   11ec4:	8ff5                	and	a5,a5,a3
   11ec6:	03f6d513          	srl	a0,a3,0x3f
   11eca:	02e80e63          	beq	a6,a4,11f06 <__letf2+0x66>
   11ece:	00e88e63          	beq	a7,a4,11eea <__letf2+0x4a>
   11ed2:	04081663          	bnez	a6,11f1e <__letf2+0x7e>
   11ed6:	006e6733          	or	a4,t3,t1
   11eda:	06089663          	bnez	a7,11f46 <__letf2+0xa6>
   11ede:	00c7e6b3          	or	a3,a5,a2
   11ee2:	caad                	beqz	a3,11f54 <__letf2+0xb4>
   11ee4:	eb3d                	bnez	a4,11f5a <__letf2+0xba>
   11ee6:	cd11                	beqz	a0,11f02 <__letf2+0x62>
   11ee8:	8082                	ret
   11eea:	8e5d                	or	a2,a2,a5
   11eec:	e225                	bnez	a2,11f4c <__letf2+0xac>
   11eee:	00081663          	bnez	a6,11efa <__letf2+0x5a>
   11ef2:	006e6e33          	or	t3,t3,t1
   11ef6:	fe0e08e3          	beqz	t3,11ee6 <__letf2+0x46>
   11efa:	04a58363          	beq	a1,a0,11f40 <__letf2+0xa0>
   11efe:	4505                	li	a0,1
   11f00:	d5e5                	beqz	a1,11ee8 <__letf2+0x48>
   11f02:	557d                	li	a0,-1
   11f04:	8082                	ret
   11f06:	006e6e33          	or	t3,t3,t1
   11f0a:	040e1163          	bnez	t3,11f4c <__letf2+0xac>
   11f0e:	ff0898e3          	bne	a7,a6,11efe <__letf2+0x5e>
   11f12:	8fd1                	or	a5,a5,a2
   11f14:	ef85                	bnez	a5,11f4c <__letf2+0xac>
   11f16:	fea594e3          	bne	a1,a0,11efe <__letf2+0x5e>
   11f1a:	4501                	li	a0,0
   11f1c:	8082                	ret
   11f1e:	fe0880e3          	beqz	a7,11efe <__letf2+0x5e>
   11f22:	fca59ee3          	bne	a1,a0,11efe <__letf2+0x5e>
   11f26:	fd08cce3          	blt	a7,a6,11efe <__letf2+0x5e>
   11f2a:	01184b63          	blt	a6,a7,11f40 <__letf2+0xa0>
   11f2e:	fdc7e8e3          	bltu	a5,t3,11efe <__letf2+0x5e>
   11f32:	00fe1763          	bne	t3,a5,11f40 <__letf2+0xa0>
   11f36:	fc6664e3          	bltu	a2,t1,11efe <__letf2+0x5e>
   11f3a:	4501                	li	a0,0
   11f3c:	fac376e3          	bgeu	t1,a2,11ee8 <__letf2+0x48>
   11f40:	d1e9                	beqz	a1,11f02 <__letf2+0x62>
   11f42:	852e                	mv	a0,a1
   11f44:	8082                	ret
   11f46:	fb55                	bnez	a4,11efa <__letf2+0x5a>
   11f48:	f145                	bnez	a0,11ee8 <__letf2+0x48>
   11f4a:	bf65                	j	11f02 <__letf2+0x62>
   11f4c:	00186073          	csrs	fflags,16
   11f50:	4509                	li	a0,2
   11f52:	8082                	ret
   11f54:	4501                	li	a0,0
   11f56:	f745                	bnez	a4,11efe <__letf2+0x5e>
   11f58:	8082                	ret
   11f5a:	fca58ae3          	beq	a1,a0,11f2e <__letf2+0x8e>
   11f5e:	b745                	j	11efe <__letf2+0x5e>

0000000000011f60 <__multf3>:
   11f60:	7159                	add	sp,sp,-112
   11f62:	f0a2                	sd	s0,96(sp)
   11f64:	e4ce                	sd	s3,72(sp)
   11f66:	f062                	sd	s8,32(sp)
   11f68:	f486                	sd	ra,104(sp)
   11f6a:	eca6                	sd	s1,88(sp)
   11f6c:	e8ca                	sd	s2,80(sp)
   11f6e:	e0d2                	sd	s4,64(sp)
   11f70:	fc56                	sd	s5,56(sp)
   11f72:	f85a                	sd	s6,48(sp)
   11f74:	f45e                	sd	s7,40(sp)
   11f76:	ec66                	sd	s9,24(sp)
   11f78:	e86a                	sd	s10,16(sp)
   11f7a:	e46e                	sd	s11,8(sp)
   11f7c:	842a                	mv	s0,a0
   11f7e:	8c32                	mv	s8,a2
   11f80:	89b6                	mv	s3,a3
   11f82:	00202af3          	frrm	s5
   11f86:	6721                	lui	a4,0x8
   11f88:	0305d793          	srl	a5,a1,0x30
   11f8c:	177d                	add	a4,a4,-1 # 7fff <__abi_tag-0x8295>
   11f8e:	01059493          	sll	s1,a1,0x10
   11f92:	8ff9                	and	a5,a5,a4
   11f94:	2a81                	sext.w	s5,s5
   11f96:	80c1                	srl	s1,s1,0x10
   11f98:	03f5dd13          	srl	s10,a1,0x3f
   11f9c:	12078c63          	beqz	a5,120d4 <__multf3+0x174>
   11fa0:	0007851b          	sext.w	a0,a5
   11fa4:	16e78963          	beq	a5,a4,12116 <__multf3+0x1b6>
   11fa8:	048e                	sll	s1,s1,0x3
   11faa:	03d45713          	srl	a4,s0,0x3d
   11fae:	8f45                	or	a4,a4,s1
   11fb0:	7571                	lui	a0,0xffffc
   11fb2:	4485                	li	s1,1
   11fb4:	14ce                	sll	s1,s1,0x33
   11fb6:	0505                	add	a0,a0,1 # ffffffffffffc001 <__global_pointer$+0xfffffffffffe6801>
   11fb8:	8cd9                	or	s1,s1,a4
   11fba:	00341b93          	sll	s7,s0,0x3
   11fbe:	00a78db3          	add	s11,a5,a0
   11fc2:	4901                	li	s2,0
   11fc4:	4c81                	li	s9,0
   11fc6:	4a01                	li	s4,0
   11fc8:	6521                	lui	a0,0x8
   11fca:	0309d793          	srl	a5,s3,0x30
   11fce:	56fd                	li	a3,-1
   11fd0:	fff50713          	add	a4,a0,-1 # 7fff <__abi_tag-0x8295>
   11fd4:	0106d413          	srl	s0,a3,0x10
   11fd8:	8ff9                	and	a5,a5,a4
   11fda:	0089f433          	and	s0,s3,s0
   11fde:	8b62                	mv	s6,s8
   11fe0:	03f9d993          	srl	s3,s3,0x3f
   11fe4:	14078363          	beqz	a5,1212a <__multf3+0x1ca>
   11fe8:	0007889b          	sext.w	a7,a5
   11fec:	06e78f63          	beq	a5,a4,1206a <__multf3+0x10a>
   11ff0:	78f1                	lui	a7,0xffffc
   11ff2:	040e                	sll	s0,s0,0x3
   11ff4:	03dc5713          	srl	a4,s8,0x3d
   11ff8:	0885                	add	a7,a7,1 # ffffffffffffc001 <__global_pointer$+0xfffffffffffe6801>
   11ffa:	8f41                	or	a4,a4,s0
   11ffc:	98be                	add	a7,a7,a5
   11ffe:	4405                	li	s0,1
   12000:	144e                	sll	s0,s0,0x33
   12002:	98ee                	add	a7,a7,s11
   12004:	47a9                	li	a5,10
   12006:	8c59                	or	s0,s0,a4
   12008:	003c1b13          	sll	s6,s8,0x3
   1200c:	4681                	li	a3,0
   1200e:	00188513          	add	a0,a7,1
   12012:	1927ca63          	blt	a5,s2,121a6 <__multf3+0x246>
   12016:	013d4733          	xor	a4,s10,s3
   1201a:	883a                	mv	a6,a4
   1201c:	4789                	li	a5,2
   1201e:	0727cb63          	blt	a5,s2,12094 <__multf3+0x134>
   12022:	197d                	add	s2,s2,-1
   12024:	4605                	li	a2,1
   12026:	1b266f63          	bltu	a2,s2,121e4 <__multf3+0x284>
   1202a:	14f68363          	beq	a3,a5,12170 <__multf3+0x210>
   1202e:	4785                	li	a5,1
   12030:	8742                	mv	a4,a6
   12032:	08f69463          	bne	a3,a5,120ba <__multf3+0x15a>
   12036:	4781                	li	a5,0
   12038:	4581                	li	a1,0
   1203a:	4501                	li	a0,0
   1203c:	073e                	sll	a4,a4,0xf
   1203e:	05c2                	sll	a1,a1,0x10
   12040:	8f5d                	or	a4,a4,a5
   12042:	1742                	sll	a4,a4,0x30
   12044:	81c1                	srl	a1,a1,0x10
   12046:	8dd9                	or	a1,a1,a4
   12048:	080a1363          	bnez	s4,120ce <__multf3+0x16e>
   1204c:	70a6                	ld	ra,104(sp)
   1204e:	7406                	ld	s0,96(sp)
   12050:	64e6                	ld	s1,88(sp)
   12052:	6946                	ld	s2,80(sp)
   12054:	69a6                	ld	s3,72(sp)
   12056:	6a06                	ld	s4,64(sp)
   12058:	7ae2                	ld	s5,56(sp)
   1205a:	7b42                	ld	s6,48(sp)
   1205c:	7ba2                	ld	s7,40(sp)
   1205e:	7c02                	ld	s8,32(sp)
   12060:	6ce2                	ld	s9,24(sp)
   12062:	6d42                	ld	s10,16(sp)
   12064:	6da2                	ld	s11,8(sp)
   12066:	6165                	add	sp,sp,112
   12068:	8082                	ret
   1206a:	008c6733          	or	a4,s8,s0
   1206e:	98ee                	add	a7,a7,s11
   12070:	10070e63          	beqz	a4,1218c <__multf3+0x22c>
   12074:	82c5                	srl	a3,a3,0x11
   12076:	00396913          	or	s2,s2,3
   1207a:	0086e363          	bltu	a3,s0,12080 <__multf3+0x120>
   1207e:	4a41                	li	s4,16
   12080:	013d4733          	xor	a4,s10,s3
   12084:	6621                	lui	a2,0x8
   12086:	46a9                	li	a3,10
   12088:	883a                	mv	a6,a4
   1208a:	00cd8533          	add	a0,s11,a2
   1208e:	5726c163          	blt	a3,s2,125f0 <__multf3+0x690>
   12092:	468d                	li	a3,3
   12094:	4785                	li	a5,1
   12096:	012797b3          	sll	a5,a5,s2
   1209a:	5307f613          	and	a2,a5,1328
   1209e:	c205                	beqz	a2,120be <__multf3+0x15e>
   120a0:	4789                	li	a5,2
   120a2:	0cfc8763          	beq	s9,a5,12170 <__multf3+0x210>
   120a6:	478d                	li	a5,3
   120a8:	4cfc8663          	beq	s9,a5,12574 <__multf3+0x614>
   120ac:	86e6                	mv	a3,s9
   120ae:	4785                	li	a5,1
   120b0:	8426                	mv	s0,s1
   120b2:	8b5e                	mv	s6,s7
   120b4:	8742                	mv	a4,a6
   120b6:	f8f680e3          	beq	a3,a5,12036 <__multf3+0xd6>
   120ba:	88aa                	mv	a7,a0
   120bc:	ace9                	j	12396 <__multf3+0x436>
   120be:	2407f613          	and	a2,a5,576
   120c2:	ce4d                	beqz	a2,1217c <__multf3+0x21c>
   120c4:	0ffff5b7          	lui	a1,0xffff
   120c8:	4501                	li	a0,0
   120ca:	158e                	sll	a1,a1,0x23
   120cc:	4a41                	li	s4,16
   120ce:	001a2073          	csrs	fflags,s4
   120d2:	bfad                	j	1204c <__multf3+0xec>
   120d4:	00a4ebb3          	or	s7,s1,a0
   120d8:	100b8063          	beqz	s7,121d8 <__multf3+0x278>
   120dc:	3a048063          	beqz	s1,1247c <__multf3+0x51c>
   120e0:	8526                	mv	a0,s1
   120e2:	46e010ef          	jal	13550 <__clzdi2>
   120e6:	0005079b          	sext.w	a5,a0
   120ea:	ff178693          	add	a3,a5,-15
   120ee:	03d00713          	li	a4,61
   120f2:	00368b9b          	addw	s7,a3,3
   120f6:	9f15                	subw	a4,a4,a3
   120f8:	017494b3          	sll	s1,s1,s7
   120fc:	00e45733          	srl	a4,s0,a4
   12100:	8cd9                	or	s1,s1,a4
   12102:	01741bb3          	sll	s7,s0,s7
   12106:	7571                	lui	a0,0xffffc
   12108:	0545                	add	a0,a0,17 # ffffffffffffc011 <__global_pointer$+0xfffffffffffe6811>
   1210a:	40f50db3          	sub	s11,a0,a5
   1210e:	4901                	li	s2,0
   12110:	4c81                	li	s9,0
   12112:	4a01                	li	s4,0
   12114:	bd55                	j	11fc8 <__multf3+0x68>
   12116:	0084ebb3          	or	s7,s1,s0
   1211a:	0a0b9463          	bnez	s7,121c2 <__multf3+0x262>
   1211e:	4481                	li	s1,0
   12120:	4921                	li	s2,8
   12122:	8daa                	mv	s11,a0
   12124:	4c89                	li	s9,2
   12126:	4a01                	li	s4,0
   12128:	b545                	j	11fc8 <__multf3+0x68>
   1212a:	008c67b3          	or	a5,s8,s0
   1212e:	cfb5                	beqz	a5,121aa <__multf3+0x24a>
   12130:	32040463          	beqz	s0,12458 <__multf3+0x4f8>
   12134:	8522                	mv	a0,s0
   12136:	41a010ef          	jal	13550 <__clzdi2>
   1213a:	2501                	sext.w	a0,a0
   1213c:	ff150713          	add	a4,a0,-15
   12140:	03d00793          	li	a5,61
   12144:	00370b1b          	addw	s6,a4,3
   12148:	9f99                	subw	a5,a5,a4
   1214a:	01641433          	sll	s0,s0,s6
   1214e:	00fc57b3          	srl	a5,s8,a5
   12152:	8c5d                	or	s0,s0,a5
   12154:	016c1b33          	sll	s6,s8,s6
   12158:	78f1                	lui	a7,0xffffc
   1215a:	08c5                	add	a7,a7,17 # ffffffffffffc011 <__global_pointer$+0xfffffffffffe6811>
   1215c:	40a888b3          	sub	a7,a7,a0
   12160:	98ee                	add	a7,a7,s11
   12162:	47a9                	li	a5,10
   12164:	4681                	li	a3,0
   12166:	00188513          	add	a0,a7,1
   1216a:	eb27d6e3          	bge	a5,s2,12016 <__multf3+0xb6>
   1216e:	a825                	j	121a6 <__multf3+0x246>
   12170:	67a1                	lui	a5,0x8
   12172:	8742                	mv	a4,a6
   12174:	17fd                	add	a5,a5,-1 # 7fff <__abi_tag-0x8295>
   12176:	4581                	li	a1,0
   12178:	4501                	li	a0,0
   1217a:	b5c9                	j	1203c <__multf3+0xdc>
   1217c:	0887f793          	and	a5,a5,136
   12180:	c3b5                	beqz	a5,121e4 <__multf3+0x284>
   12182:	884e                	mv	a6,s3
   12184:	84a2                	mv	s1,s0
   12186:	8bda                	mv	s7,s6
   12188:	8cb6                	mv	s9,a3
   1218a:	bf19                	j	120a0 <__multf3+0x140>
   1218c:	00296913          	or	s2,s2,2
   12190:	47a9                	li	a5,10
   12192:	956e                	add	a0,a0,s11
   12194:	4d27d463          	bge	a5,s2,1265c <__multf3+0x6fc>
   12198:	4401                	li	s0,0
   1219a:	47b9                	li	a5,14
   1219c:	4689                	li	a3,2
   1219e:	462d                	li	a2,11
   121a0:	8b3a                	mv	s6,a4
   121a2:	fec780e3          	beq	a5,a2,12182 <__multf3+0x222>
   121a6:	886a                	mv	a6,s10
   121a8:	bde5                	j	120a0 <__multf3+0x140>
   121aa:	88ee                	mv	a7,s11
   121ac:	00196913          	or	s2,s2,1
   121b0:	47a9                	li	a5,10
   121b2:	4401                	li	s0,0
   121b4:	4b01                	li	s6,0
   121b6:	4685                	li	a3,1
   121b8:	00188513          	add	a0,a7,1
   121bc:	e527dde3          	bge	a5,s2,12016 <__multf3+0xb6>
   121c0:	b7dd                	j	121a6 <__multf3+0x246>
   121c2:	4a05                	li	s4,1
   121c4:	1a3e                	sll	s4,s4,0x2f
   121c6:	0144ba33          	sltu	s4,s1,s4
   121ca:	004a1a1b          	sllw	s4,s4,0x4
   121ce:	8ba2                	mv	s7,s0
   121d0:	4931                	li	s2,12
   121d2:	8daa                	mv	s11,a0
   121d4:	4c8d                	li	s9,3
   121d6:	bbcd                	j	11fc8 <__multf3+0x68>
   121d8:	4481                	li	s1,0
   121da:	4911                	li	s2,4
   121dc:	4d81                	li	s11,0
   121de:	4c85                	li	s9,1
   121e0:	4a01                	li	s4,0
   121e2:	b3dd                	j	11fc8 <__multf3+0x68>
   121e4:	57fd                	li	a5,-1
   121e6:	9381                	srl	a5,a5,0x20
   121e8:	00fbf333          	and	t1,s7,a5
   121ec:	020bd993          	srl	s3,s7,0x20
   121f0:	020b5e13          	srl	t3,s6,0x20
   121f4:	00fb77b3          	and	a5,s6,a5
   121f8:	02678eb3          	mul	t4,a5,t1
   121fc:	9ba6                	add	s7,s7,s1
   121fe:	9b22                	add	s6,s6,s0
   12200:	009bb633          	sltu	a2,s7,s1
   12204:	008b3fb3          	sltu	t6,s6,s0
   12208:	85b2                	mv	a1,a2
   1220a:	86fe                	mv	a3,t6
   1220c:	02f987b3          	mul	a5,s3,a5
   12210:	020edf13          	srl	t5,t4,0x20
   12214:	026e0333          	mul	t1,t3,t1
   12218:	933e                	add	t1,t1,a5
   1221a:	9f1a                	add	t5,t5,t1
   1221c:	03c989b3          	mul	s3,s3,t3
   12220:	00ff7563          	bgeu	t5,a5,1222a <__multf3+0x2ca>
   12224:	4785                	li	a5,1
   12226:	1782                	sll	a5,a5,0x20
   12228:	99be                	add	s3,s3,a5
   1222a:	5e7d                	li	t3,-1
   1222c:	020e5e13          	srl	t3,t3,0x20
   12230:	01cbf7b3          	and	a5,s7,t3
   12234:	020bd913          	srl	s2,s7,0x20
   12238:	020b5c13          	srl	s8,s6,0x20
   1223c:	01cb73b3          	and	t2,s6,t3
   12240:	01cf7333          	and	t1,t5,t3
   12244:	02f382b3          	mul	t0,t2,a5
   12248:	01cefeb3          	and	t4,t4,t3
   1224c:	020f5f13          	srl	t5,t5,0x20
   12250:	9f4e                	add	t5,t5,s3
   12252:	1302                	sll	t1,t1,0x20
   12254:	9376                	add	t1,t1,t4
   12256:	02790e33          	mul	t3,s2,t2
   1225a:	0202d993          	srl	s3,t0,0x20
   1225e:	02fc07b3          	mul	a5,s8,a5
   12262:	97f2                	add	a5,a5,t3
   12264:	99be                	add	s3,s3,a5
   12266:	03890933          	mul	s2,s2,s8
   1226a:	01c9f563          	bgeu	s3,t3,12274 <__multf3+0x314>
   1226e:	4785                	li	a5,1
   12270:	1782                	sll	a5,a5,0x20
   12272:	993e                	add	s2,s2,a5
   12274:	57fd                	li	a5,-1
   12276:	9381                	srl	a5,a5,0x20
   12278:	0204dc93          	srl	s9,s1,0x20
   1227c:	02045c13          	srl	s8,s0,0x20
   12280:	8cfd                	and	s1,s1,a5
   12282:	8c7d                	and	s0,s0,a5
   12284:	00f9feb3          	and	t4,s3,a5
   12288:	028483b3          	mul	t2,s1,s0
   1228c:	00f2f2b3          	and	t0,t0,a5
   12290:	1e82                	sll	t4,t4,0x20
   12292:	0209d993          	srl	s3,s3,0x20
   12296:	9e96                	add	t4,t4,t0
   12298:	028c87b3          	mul	a5,s9,s0
   1229c:	0203de13          	srl	t3,t2,0x20
   122a0:	029c04b3          	mul	s1,s8,s1
   122a4:	94be                	add	s1,s1,a5
   122a6:	9e26                	add	t3,t3,s1
   122a8:	038c84b3          	mul	s1,s9,s8
   122ac:	00fe7563          	bgeu	t3,a5,122b6 <__multf3+0x356>
   122b0:	4785                	li	a5,1
   122b2:	1782                	sll	a5,a5,0x20
   122b4:	94be                	add	s1,s1,a5
   122b6:	01ee82b3          	add	t0,t4,t5
   122ba:	01d2beb3          	sltu	t4,t0,t4
   122be:	01d98433          	add	s0,s3,t4
   122c2:	40d006b3          	neg	a3,a3
   122c6:	944a                	add	s0,s0,s2
   122c8:	0176f6b3          	and	a3,a3,s7
   122cc:	40b005b3          	neg	a1,a1
   122d0:	59fd                	li	s3,-1
   122d2:	96a2                	add	a3,a3,s0
   122d4:	01f67633          	and	a2,a2,t6
   122d8:	0209d993          	srl	s3,s3,0x20
   122dc:	0165f5b3          	and	a1,a1,s6
   122e0:	01d43eb3          	sltu	t4,s0,t4
   122e4:	00d58933          	add	s2,a1,a3
   122e8:	9eb2                	add	t4,t4,a2
   122ea:	013e77b3          	and	a5,t3,s3
   122ee:	0086b6b3          	sltu	a3,a3,s0
   122f2:	40628fb3          	sub	t6,t0,t1
   122f6:	96f6                	add	a3,a3,t4
   122f8:	41e90633          	sub	a2,s2,t5
   122fc:	020e5e13          	srl	t3,t3,0x20
   12300:	1782                	sll	a5,a5,0x20
   12302:	0133f3b3          	and	t2,t2,s3
   12306:	00b935b3          	sltu	a1,s2,a1
   1230a:	01f2b433          	sltu	s0,t0,t6
   1230e:	95b6                	add	a1,a1,a3
   12310:	9e26                	add	t3,t3,s1
   12312:	979e                	add	a5,a5,t2
   12314:	00c93eb3          	sltu	t4,s2,a2
   12318:	408606b3          	sub	a3,a2,s0
   1231c:	1bf2e663          	bltu	t0,t6,124c8 <__multf3+0x568>
   12320:	8f76                	mv	t5,t4
   12322:	40ff8eb3          	sub	t4,t6,a5
   12326:	41c68633          	sub	a2,a3,t3
   1232a:	01dfb2b3          	sltu	t0,t6,t4
   1232e:	95f2                	add	a1,a1,t3
   12330:	00c6b6b3          	sltu	a3,a3,a2
   12334:	40578e33          	sub	t3,a5,t0
   12338:	01dff663          	bgeu	t6,t4,12344 <__multf3+0x3e4>
   1233c:	00163f93          	seqz	t6,a2
   12340:	00dfe6b3          	or	a3,t6,a3
   12344:	9672                	add	a2,a2,t3
   12346:	00f63433          	sltu	s0,a2,a5
   1234a:	942e                	add	s0,s0,a1
   1234c:	41e40433          	sub	s0,s0,t5
   12350:	8c15                	sub	s0,s0,a3
   12352:	00de9b13          	sll	s6,t4,0xd
   12356:	0436                	sll	s0,s0,0xd
   12358:	006b6b33          	or	s6,s6,t1
   1235c:	033ed793          	srl	a5,t4,0x33
   12360:	03445693          	srl	a3,s0,0x34
   12364:	01603b33          	snez	s6,s6
   12368:	03365593          	srl	a1,a2,0x33
   1236c:	00fb6b33          	or	s6,s6,a5
   12370:	0636                	sll	a2,a2,0xd
   12372:	0016f793          	and	a5,a3,1
   12376:	8c4d                	or	s0,s0,a1
   12378:	00cb6b33          	or	s6,s6,a2
   1237c:	cf89                	beqz	a5,12396 <__multf3+0x436>
   1237e:	001b5793          	srl	a5,s6,0x1
   12382:	001b7b13          	and	s6,s6,1
   12386:	03f41693          	sll	a3,s0,0x3f
   1238a:	0167e7b3          	or	a5,a5,s6
   1238e:	00d7eb33          	or	s6,a5,a3
   12392:	8005                	srl	s0,s0,0x1
   12394:	88aa                	mv	a7,a0
   12396:	6691                	lui	a3,0x4
   12398:	16fd                	add	a3,a3,-1 # 3fff <__abi_tag-0xc295>
   1239a:	96c6                	add	a3,a3,a7
   1239c:	04d05c63          	blez	a3,123f4 <__multf3+0x494>
   123a0:	007b7793          	and	a5,s6,7
   123a4:	cb99                	beqz	a5,123ba <__multf3+0x45a>
   123a6:	4789                	li	a5,2
   123a8:	001a6a13          	or	s4,s4,1
   123ac:	20fa8763          	beq	s5,a5,125ba <__multf3+0x65a>
   123b0:	478d                	li	a5,3
   123b2:	1cfa8f63          	beq	s5,a5,12590 <__multf3+0x630>
   123b6:	1e0a8663          	beqz	s5,125a2 <__multf3+0x642>
   123ba:	03445793          	srl	a5,s0,0x34
   123be:	8b85                	and	a5,a5,1
   123c0:	c799                	beqz	a5,123ce <__multf3+0x46e>
   123c2:	57fd                	li	a5,-1
   123c4:	17d2                	sll	a5,a5,0x34
   123c6:	17fd                	add	a5,a5,-1
   123c8:	6691                	lui	a3,0x4
   123ca:	8c7d                	and	s0,s0,a5
   123cc:	96c6                	add	a3,a3,a7
   123ce:	67a1                	lui	a5,0x8
   123d0:	ffe78613          	add	a2,a5,-2 # 7ffe <__abi_tag-0x8296>
   123d4:	0cd64463          	blt	a2,a3,1249c <__multf3+0x53c>
   123d8:	17fd                	add	a5,a5,-1
   123da:	8ff5                	and	a5,a5,a3
   123dc:	03d41513          	sll	a0,s0,0x3d
   123e0:	003b5b13          	srl	s6,s6,0x3
   123e4:	0436                	sll	s0,s0,0xd
   123e6:	17c2                	sll	a5,a5,0x30
   123e8:	01656533          	or	a0,a0,s6
   123ec:	01045593          	srl	a1,s0,0x10
   123f0:	93c1                	srl	a5,a5,0x30
   123f2:	b1a9                	j	1203c <__multf3+0xdc>
   123f4:	e2ed                	bnez	a3,124d6 <__multf3+0x576>
   123f6:	007b7693          	and	a3,s6,7
   123fa:	87a2                	mv	a5,s0
   123fc:	c69d                	beqz	a3,1242a <__multf3+0x4ca>
   123fe:	4689                	li	a3,2
   12400:	001a6a13          	or	s4,s4,1
   12404:	22da8463          	beq	s5,a3,1262c <__multf3+0x6cc>
   12408:	468d                	li	a3,3
   1240a:	20da8763          	beq	s5,a3,12618 <__multf3+0x6b8>
   1240e:	000a9e63          	bnez	s5,1242a <__multf3+0x4ca>
   12412:	00fb7693          	and	a3,s6,15
   12416:	4611                	li	a2,4
   12418:	00c68963          	beq	a3,a2,1242a <__multf3+0x4ca>
   1241c:	ffcb3793          	sltiu	a5,s6,-4
   12420:	0017c793          	xor	a5,a5,1
   12424:	1782                	sll	a5,a5,0x20
   12426:	9381                	srl	a5,a5,0x20
   12428:	97a2                	add	a5,a5,s0
   1242a:	93d1                	srl	a5,a5,0x34
   1242c:	0017c793          	xor	a5,a5,1
   12430:	8b85                	and	a5,a5,1
   12432:	03f00693          	li	a3,63
   12436:	4605                	li	a2,1
   12438:	00d41533          	sll	a0,s0,a3
   1243c:	00cb55b3          	srl	a1,s6,a2
   12440:	00db16b3          	sll	a3,s6,a3
   12444:	00d036b3          	snez	a3,a3
   12448:	8d4d                	or	a0,a0,a1
   1244a:	8d55                	or	a0,a0,a3
   1244c:	00757693          	and	a3,a0,7
   12450:	00c45633          	srl	a2,s0,a2
   12454:	e6e9                	bnez	a3,1251e <__multf3+0x5be>
   12456:	a8f1                	j	12532 <__multf3+0x5d2>
   12458:	8562                	mv	a0,s8
   1245a:	0f6010ef          	jal	13550 <__clzdi2>
   1245e:	0405051b          	addw	a0,a0,64
   12462:	ff150713          	add	a4,a0,-15
   12466:	03c00793          	li	a5,60
   1246a:	cce7dbe3          	bge	a5,a4,12140 <__multf3+0x1e0>
   1246e:	fc37071b          	addw	a4,a4,-61
   12472:	00ec1733          	sll	a4,s8,a4
   12476:	843a                	mv	s0,a4
   12478:	4b01                	li	s6,0
   1247a:	b9f9                	j	12158 <__multf3+0x1f8>
   1247c:	0d4010ef          	jal	13550 <__clzdi2>
   12480:	0405079b          	addw	a5,a0,64
   12484:	ff178693          	add	a3,a5,-15
   12488:	03c00713          	li	a4,60
   1248c:	c6d751e3          	bge	a4,a3,120ee <__multf3+0x18e>
   12490:	fc36869b          	addw	a3,a3,-61 # 3fc3 <__abi_tag-0xc2d1>
   12494:	4b81                	li	s7,0
   12496:	00d414b3          	sll	s1,s0,a3
   1249a:	b1b5                	j	12106 <__multf3+0x1a6>
   1249c:	4689                	li	a3,2
   1249e:	12da8163          	beq	s5,a3,125c0 <__multf3+0x660>
   124a2:	468d                	li	a3,3
   124a4:	0cda8f63          	beq	s5,a3,12582 <__multf3+0x622>
   124a8:	0c0a8f63          	beqz	s5,12586 <__multf3+0x626>
   124ac:	55fd                	li	a1,-1
   124ae:	81c1                	srl	a1,a1,0x10
   124b0:	557d                	li	a0,-1
   124b2:	005a6a13          	or	s4,s4,5
   124b6:	05c2                	sll	a1,a1,0x10
   124b8:	1642                	sll	a2,a2,0x30
   124ba:	81c1                	srl	a1,a1,0x10
   124bc:	177e                	sll	a4,a4,0x3f
   124be:	8dd1                	or	a1,a1,a2
   124c0:	8dd9                	or	a1,a1,a4
   124c2:	001a2073          	csrs	fflags,s4
   124c6:	b659                	j	1204c <__multf3+0xec>
   124c8:	412f0f33          	sub	t5,t5,s2
   124cc:	001f3f13          	seqz	t5,t5
   124d0:	01df6f33          	or	t5,t5,t4
   124d4:	b5b9                	j	12322 <__multf3+0x3c2>
   124d6:	4785                	li	a5,1
   124d8:	40d786b3          	sub	a3,a5,a3
   124dc:	07400613          	li	a2,116
   124e0:	06d64663          	blt	a2,a3,1254c <__multf3+0x5ec>
   124e4:	03f00793          	li	a5,63
   124e8:	0006861b          	sext.w	a2,a3
   124ec:	14d7df63          	bge	a5,a3,1264a <__multf3+0x6ea>
   124f0:	fc06079b          	addw	a5,a2,-64 # 7fc0 <__abi_tag-0x82d4>
   124f4:	04000593          	li	a1,64
   124f8:	00f457b3          	srl	a5,s0,a5
   124fc:	00b68963          	beq	a3,a1,1250e <__multf3+0x5ae>
   12500:	08000693          	li	a3,128
   12504:	9e91                	subw	a3,a3,a2
   12506:	00d416b3          	sll	a3,s0,a3
   1250a:	00db6b33          	or	s6,s6,a3
   1250e:	01603533          	snez	a0,s6
   12512:	8d5d                	or	a0,a0,a5
   12514:	00757793          	and	a5,a0,7
   12518:	cbe1                	beqz	a5,125e8 <__multf3+0x688>
   1251a:	4785                	li	a5,1
   1251c:	4601                	li	a2,0
   1251e:	4689                	li	a3,2
   12520:	001a6a13          	or	s4,s4,1
   12524:	12da8063          	beq	s5,a3,12644 <__multf3+0x6e4>
   12528:	468d                	li	a3,3
   1252a:	10da8463          	beq	s5,a3,12632 <__multf3+0x6d2>
   1252e:	0c0a8963          	beqz	s5,12600 <__multf3+0x6a0>
   12532:	03365693          	srl	a3,a2,0x33
   12536:	8a85                	and	a3,a3,1
   12538:	c6d9                	beqz	a3,125c6 <__multf3+0x666>
   1253a:	001a6a13          	or	s4,s4,1
   1253e:	4605                	li	a2,1
   12540:	4581                	li	a1,0
   12542:	4501                	li	a0,0
   12544:	dbad                	beqz	a5,124b6 <__multf3+0x556>
   12546:	002a6a13          	or	s4,s4,2
   1254a:	b7b5                	j	124b6 <__multf3+0x556>
   1254c:	008b6533          	or	a0,s6,s0
   12550:	cd09                	beqz	a0,1256a <__multf3+0x60a>
   12552:	4689                	li	a3,2
   12554:	001a6a13          	or	s4,s4,1
   12558:	8542                	mv	a0,a6
   1255a:	00da8863          	beq	s5,a3,1256a <__multf3+0x60a>
   1255e:	468d                	li	a3,3
   12560:	4501                	li	a0,0
   12562:	00da9463          	bne	s5,a3,1256a <__multf3+0x60a>
   12566:	41078533          	sub	a0,a5,a6
   1256a:	002a6a13          	or	s4,s4,2
   1256e:	4601                	li	a2,0
   12570:	4581                	li	a1,0
   12572:	b791                	j	124b6 <__multf3+0x556>
   12574:	67a1                	lui	a5,0x8
   12576:	4585                	li	a1,1
   12578:	4701                	li	a4,0
   1257a:	17fd                	add	a5,a5,-1 # 7fff <__abi_tag-0x8295>
   1257c:	15be                	sll	a1,a1,0x2f
   1257e:	4501                	li	a0,0
   12580:	bc75                	j	1203c <__multf3+0xdc>
   12582:	f20815e3          	bnez	a6,124ac <__multf3+0x54c>
   12586:	fff78613          	add	a2,a5,-1
   1258a:	4581                	li	a1,0
   1258c:	4501                	li	a0,0
   1258e:	b715                	j	124b2 <__multf3+0x552>
   12590:	e20815e3          	bnez	a6,123ba <__multf3+0x45a>
   12594:	008b0793          	add	a5,s6,8
   12598:	0167bb33          	sltu	s6,a5,s6
   1259c:	945a                	add	s0,s0,s6
   1259e:	8b3e                	mv	s6,a5
   125a0:	bd29                	j	123ba <__multf3+0x45a>
   125a2:	00fb7793          	and	a5,s6,15
   125a6:	4611                	li	a2,4
   125a8:	e0c789e3          	beq	a5,a2,123ba <__multf3+0x45a>
   125ac:	004b0793          	add	a5,s6,4
   125b0:	0167bb33          	sltu	s6,a5,s6
   125b4:	945a                	add	s0,s0,s6
   125b6:	8b3e                	mv	s6,a5
   125b8:	b509                	j	123ba <__multf3+0x45a>
   125ba:	e00800e3          	beqz	a6,123ba <__multf3+0x45a>
   125be:	bfd9                	j	12594 <__multf3+0x634>
   125c0:	ee0806e3          	beqz	a6,124ac <__multf3+0x54c>
   125c4:	b7c9                	j	12586 <__multf3+0x626>
   125c6:	00d61593          	sll	a1,a2,0xd
   125ca:	810d                	srl	a0,a0,0x3
   125cc:	1676                	sll	a2,a2,0x3d
   125ce:	81c1                	srl	a1,a1,0x10
   125d0:	8d51                	or	a0,a0,a2
   125d2:	a60785e3          	beqz	a5,1203c <__multf3+0xdc>
   125d6:	001a7693          	and	a3,s4,1
   125da:	4781                	li	a5,0
   125dc:	a60680e3          	beqz	a3,1203c <__multf3+0xdc>
   125e0:	4601                	li	a2,0
   125e2:	002a6a13          	or	s4,s4,2
   125e6:	bdc1                	j	124b6 <__multf3+0x556>
   125e8:	810d                	srl	a0,a0,0x3
   125ea:	4781                	li	a5,0
   125ec:	4581                	li	a1,0
   125ee:	b4b9                	j	1203c <__multf3+0xdc>
   125f0:	473d                	li	a4,15
   125f2:	06e91163          	bne	s2,a4,12654 <__multf3+0x6f4>
   125f6:	4585                	li	a1,1
   125f8:	4701                	li	a4,0
   125fa:	15be                	sll	a1,a1,0x2f
   125fc:	4501                	li	a0,0
   125fe:	bc3d                	j	1203c <__multf3+0xdc>
   12600:	00f57693          	and	a3,a0,15
   12604:	4591                	li	a1,4
   12606:	f2b686e3          	beq	a3,a1,12532 <__multf3+0x5d2>
   1260a:	00450693          	add	a3,a0,4
   1260e:	00a6b533          	sltu	a0,a3,a0
   12612:	962a                	add	a2,a2,a0
   12614:	8536                	mv	a0,a3
   12616:	bf31                	j	12532 <__multf3+0x5d2>
   12618:	e00819e3          	bnez	a6,1242a <__multf3+0x4ca>
   1261c:	ff8b3793          	sltiu	a5,s6,-8
   12620:	0017c793          	xor	a5,a5,1
   12624:	1782                	sll	a5,a5,0x20
   12626:	9381                	srl	a5,a5,0x20
   12628:	97a2                	add	a5,a5,s0
   1262a:	b501                	j	1242a <__multf3+0x4ca>
   1262c:	de080fe3          	beqz	a6,1242a <__multf3+0x4ca>
   12630:	b7f5                	j	1261c <__multf3+0x6bc>
   12632:	f00810e3          	bnez	a6,12532 <__multf3+0x5d2>
   12636:	00850693          	add	a3,a0,8
   1263a:	00a6b533          	sltu	a0,a3,a0
   1263e:	962a                	add	a2,a2,a0
   12640:	8536                	mv	a0,a3
   12642:	bdc5                	j	12532 <__multf3+0x5d2>
   12644:	ee0807e3          	beqz	a6,12532 <__multf3+0x5d2>
   12648:	b7fd                	j	12636 <__multf3+0x6d6>
   1264a:	04000693          	li	a3,64
   1264e:	9e91                	subw	a3,a3,a2
   12650:	4785                	li	a5,1
   12652:	b3dd                	j	12438 <__multf3+0x4d8>
   12654:	8762                	mv	a4,s8
   12656:	47ad                	li	a5,11
   12658:	468d                	li	a3,3
   1265a:	b691                	j	1219e <__multf3+0x23e>
   1265c:	013d4733          	xor	a4,s10,s3
   12660:	883a                	mv	a6,a4
   12662:	4401                	li	s0,0
   12664:	4b01                	li	s6,0
   12666:	4689                	li	a3,2
   12668:	ba55                	j	1201c <__multf3+0xbc>

000000000001266a <__subtf3>:
   1266a:	7179                	add	sp,sp,-48
   1266c:	f406                	sd	ra,40(sp)
   1266e:	f022                	sd	s0,32(sp)
   12670:	ec26                	sd	s1,24(sp)
   12672:	e84a                	sd	s2,16(sp)
   12674:	e44e                	sd	s3,8(sp)
   12676:	e052                	sd	s4,0(sp)
   12678:	00202a73          	frrm	s4
   1267c:	57fd                	li	a5,-1
   1267e:	83c1                	srl	a5,a5,0x10
   12680:	6721                	lui	a4,0x8
   12682:	fff70e13          	add	t3,a4,-1 # 7fff <__abi_tag-0x8295>
   12686:	00f5f833          	and	a6,a1,a5
   1268a:	00f6f733          	and	a4,a3,a5
   1268e:	0306d313          	srl	t1,a3,0x30
   12692:	0305d413          	srl	s0,a1,0x30
   12696:	03d55793          	srl	a5,a0,0x3d
   1269a:	03d65893          	srl	a7,a2,0x3d
   1269e:	080e                	sll	a6,a6,0x3
   126a0:	070e                	sll	a4,a4,0x3
   126a2:	01c37333          	and	t1,t1,t3
   126a6:	03f5d493          	srl	s1,a1,0x3f
   126aa:	2a01                	sext.w	s4,s4
   126ac:	01c47433          	and	s0,s0,t3
   126b0:	0107e7b3          	or	a5,a5,a6
   126b4:	050e                	sll	a0,a0,0x3
   126b6:	92fd                	srl	a3,a3,0x3f
   126b8:	00e8e5b3          	or	a1,a7,a4
   126bc:	060e                	sll	a2,a2,0x3
   126be:	1dc30563          	beq	t1,t3,12888 <__subtf3+0x21e>
   126c2:	4064073b          	subw	a4,s0,t1
   126c6:	0016c813          	xor	a6,a3,1
   126ca:	88ba                	mv	a7,a4
   126cc:	0b048a63          	beq	s1,a6,12780 <__subtf3+0x116>
   126d0:	6ce05063          	blez	a4,12d90 <__subtf3+0x726>
   126d4:	34031163          	bnez	t1,12a16 <__subtf3+0x3ac>
   126d8:	00c5e733          	or	a4,a1,a2
   126dc:	24070663          	beqz	a4,12928 <__subtf3+0x2be>
   126e0:	fff8871b          	addw	a4,a7,-1
   126e4:	6c070563          	beqz	a4,12dae <__subtf3+0x744>
   126e8:	53c40b63          	beq	s0,t3,12c1e <__subtf3+0x5b4>
   126ec:	07400693          	li	a3,116
   126f0:	4905                	li	s2,1
   126f2:	32e6dc63          	bge	a3,a4,12a2a <__subtf3+0x3c0>
   126f6:	41250933          	sub	s2,a0,s2
   126fa:	01253533          	sltu	a0,a0,s2
   126fe:	40a789b3          	sub	s3,a5,a0
   12702:	0339d793          	srl	a5,s3,0x33
   12706:	8b85                	and	a5,a5,1
   12708:	34078863          	beqz	a5,12a58 <__subtf3+0x3ee>
   1270c:	09b6                	sll	s3,s3,0xd
   1270e:	00d9d993          	srl	s3,s3,0xd
   12712:	4a098e63          	beqz	s3,12bce <__subtf3+0x564>
   12716:	854e                	mv	a0,s3
   12718:	639000ef          	jal	13550 <__clzdi2>
   1271c:	ff45071b          	addw	a4,a0,-12
   12720:	04000693          	li	a3,64
   12724:	40e687bb          	subw	a5,a3,a4
   12728:	00f957b3          	srl	a5,s2,a5
   1272c:	00e999b3          	sll	s3,s3,a4
   12730:	0137e7b3          	or	a5,a5,s3
   12734:	00e91933          	sll	s2,s2,a4
   12738:	50874a63          	blt	a4,s0,12c4c <__subtf3+0x5e2>
   1273c:	9f01                	subw	a4,a4,s0
   1273e:	0017059b          	addw	a1,a4,1
   12742:	9e8d                	subw	a3,a3,a1
   12744:	00d919b3          	sll	s3,s2,a3
   12748:	00b95733          	srl	a4,s2,a1
   1274c:	013039b3          	snez	s3,s3
   12750:	01376733          	or	a4,a4,s3
   12754:	00d796b3          	sll	a3,a5,a3
   12758:	00e6e933          	or	s2,a3,a4
   1275c:	00b7d9b3          	srl	s3,a5,a1
   12760:	01396733          	or	a4,s2,s3
   12764:	30071a63          	bnez	a4,12a78 <__subtf3+0x40e>
   12768:	0014f593          	and	a1,s1,1
   1276c:	70a2                	ld	ra,40(sp)
   1276e:	7402                	ld	s0,32(sp)
   12770:	64e2                	ld	s1,24(sp)
   12772:	6942                	ld	s2,16(sp)
   12774:	69a2                	ld	s3,8(sp)
   12776:	6a02                	ld	s4,0(sp)
   12778:	4501                	li	a0,0
   1277a:	15fe                	sll	a1,a1,0x3f
   1277c:	6145                	add	sp,sp,48
   1277e:	8082                	ret
   12780:	1ee05563          	blez	a4,1296a <__subtf3+0x300>
   12784:	4a031763          	bnez	t1,12c32 <__subtf3+0x5c8>
   12788:	00c5e733          	or	a4,a1,a2
   1278c:	18070e63          	beqz	a4,12928 <__subtf3+0x2be>
   12790:	fff8871b          	addw	a4,a7,-1
   12794:	5c070863          	beqz	a4,12d64 <__subtf3+0x6fa>
   12798:	49c40363          	beq	s0,t3,12c1e <__subtf3+0x5b4>
   1279c:	07400693          	li	a3,116
   127a0:	4985                	li	s3,1
   127a2:	02e6c863          	blt	a3,a4,127d2 <__subtf3+0x168>
   127a6:	03f00693          	li	a3,63
   127aa:	6ae6c663          	blt	a3,a4,12e56 <__subtf3+0x7ec>
   127ae:	04000693          	li	a3,64
   127b2:	9e99                	subw	a3,a3,a4
   127b4:	00d599b3          	sll	s3,a1,a3
   127b8:	00e65833          	srl	a6,a2,a4
   127bc:	00d616b3          	sll	a3,a2,a3
   127c0:	0109e9b3          	or	s3,s3,a6
   127c4:	00d036b3          	snez	a3,a3
   127c8:	00e5d733          	srl	a4,a1,a4
   127cc:	00d9e9b3          	or	s3,s3,a3
   127d0:	97ba                	add	a5,a5,a4
   127d2:	954e                	add	a0,a0,s3
   127d4:	013539b3          	sltu	s3,a0,s3
   127d8:	892a                	mv	s2,a0
   127da:	99be                	add	s3,s3,a5
   127dc:	0339d793          	srl	a5,s3,0x33
   127e0:	8b85                	and	a5,a5,1
   127e2:	26078b63          	beqz	a5,12a58 <__subtf3+0x3ee>
   127e6:	67a1                	lui	a5,0x8
   127e8:	0405                	add	s0,s0,1
   127ea:	fff78713          	add	a4,a5,-1 # 7fff <__abi_tag-0x8295>
   127ee:	64e40663          	beq	s0,a4,12e3a <__subtf3+0x7d0>
   127f2:	577d                	li	a4,-1
   127f4:	174e                	sll	a4,a4,0x33
   127f6:	177d                	add	a4,a4,-1
   127f8:	00e9f733          	and	a4,s3,a4
   127fc:	00195793          	srl	a5,s2,0x1
   12800:	00197913          	and	s2,s2,1
   12804:	0127e7b3          	or	a5,a5,s2
   12808:	03f71913          	sll	s2,a4,0x3f
   1280c:	00f96933          	or	s2,s2,a5
   12810:	00175993          	srl	s3,a4,0x1
   12814:	8b9d                	and	a5,a5,7
   12816:	1e078c63          	beqz	a5,12a0e <__subtf3+0x3a4>
   1281a:	4789                	li	a5,2
   1281c:	42fa0663          	beq	s4,a5,12c48 <__subtf3+0x5de>
   12820:	478d                	li	a5,3
   12822:	38fa0d63          	beq	s4,a5,12bbc <__subtf3+0x552>
   12826:	220a0c63          	beqz	s4,12a5e <__subtf3+0x3f4>
   1282a:	4705                	li	a4,1
   1282c:	0339d793          	srl	a5,s3,0x33
   12830:	8b85                	and	a5,a5,1
   12832:	0a078be3          	beqz	a5,130e8 <__subtf3+0xa7e>
   12836:	6621                	lui	a2,0x8
   12838:	0405                	add	s0,s0,1
   1283a:	fff60693          	add	a3,a2,-1 # 7fff <__abi_tag-0x8295>
   1283e:	2ad40f63          	beq	s0,a3,12afc <__subtf3+0x492>
   12842:	57fd                	li	a5,-1
   12844:	8c75                	and	s0,s0,a3
   12846:	17ce                	sll	a5,a5,0x33
   12848:	17fd                	add	a5,a5,-1
   1284a:	1442                	sll	s0,s0,0x30
   1284c:	00f9f7b3          	and	a5,s3,a5
   12850:	9041                	srl	s0,s0,0x30
   12852:	00d79593          	sll	a1,a5,0xd
   12856:	8885                	and	s1,s1,1
   12858:	81c1                	srl	a1,a1,0x10
   1285a:	04be                	sll	s1,s1,0xf
   1285c:	05c2                	sll	a1,a1,0x10
   1285e:	8cc1                	or	s1,s1,s0
   12860:	00395913          	srl	s2,s2,0x3
   12864:	03d79513          	sll	a0,a5,0x3d
   12868:	14c2                	sll	s1,s1,0x30
   1286a:	81c1                	srl	a1,a1,0x10
   1286c:	01256533          	or	a0,a0,s2
   12870:	8dc5                	or	a1,a1,s1
   12872:	c765                	beqz	a4,1295a <__subtf3+0x2f0>
   12874:	00172073          	csrs	fflags,a4
   12878:	70a2                	ld	ra,40(sp)
   1287a:	7402                	ld	s0,32(sp)
   1287c:	64e2                	ld	s1,24(sp)
   1287e:	6942                	ld	s2,16(sp)
   12880:	69a2                	ld	s3,8(sp)
   12882:	6a02                	ld	s4,0(sp)
   12884:	6145                	add	sp,sp,48
   12886:	8082                	ret
   12888:	7761                	lui	a4,0xffff8
   1288a:	2705                	addw	a4,a4,1 # ffffffffffff8001 <__global_pointer$+0xfffffffffffe2801>
   1288c:	00c5e833          	or	a6,a1,a2
   12890:	9f21                	addw	a4,a4,s0
   12892:	06081a63          	bnez	a6,12906 <__subtf3+0x29c>
   12896:	0016c813          	xor	a6,a3,1
   1289a:	13048363          	beq	s1,a6,129c0 <__subtf3+0x356>
   1289e:	28070563          	beqz	a4,12b28 <__subtf3+0x4be>
   128a2:	3c041163          	bnez	s0,12c64 <__subtf3+0x5fa>
   128a6:	00a7e6b3          	or	a3,a5,a0
   128aa:	46068c63          	beqz	a3,12d22 <__subtf3+0x6b8>
   128ae:	fff74713          	not	a4,a4
   128b2:	66070763          	beqz	a4,12f20 <__subtf3+0x8b6>
   128b6:	66a1                	lui	a3,0x8
   128b8:	16fd                	add	a3,a3,-1 # 7fff <__abi_tag-0x8295>
   128ba:	60d30a63          	beq	t1,a3,12ece <__subtf3+0x864>
   128be:	07400693          	li	a3,116
   128c2:	84c2                	mv	s1,a6
   128c4:	4905                	li	s2,1
   128c6:	02e6c863          	blt	a3,a4,128f6 <__subtf3+0x28c>
   128ca:	03f00693          	li	a3,63
   128ce:	5ce6cc63          	blt	a3,a4,12ea6 <__subtf3+0x83c>
   128d2:	04000693          	li	a3,64
   128d6:	9e99                	subw	a3,a3,a4
   128d8:	00d79933          	sll	s2,a5,a3
   128dc:	00e55833          	srl	a6,a0,a4
   128e0:	00d516b3          	sll	a3,a0,a3
   128e4:	01096933          	or	s2,s2,a6
   128e8:	00d036b3          	snez	a3,a3
   128ec:	00e7d733          	srl	a4,a5,a4
   128f0:	00d96933          	or	s2,s2,a3
   128f4:	8d99                	sub	a1,a1,a4
   128f6:	41260933          	sub	s2,a2,s2
   128fa:	01263633          	sltu	a2,a2,s2
   128fe:	40c589b3          	sub	s3,a1,a2
   12902:	841a                	mv	s0,t1
   12904:	bbfd                	j	12702 <__subtf3+0x98>
   12906:	8836                	mv	a6,a3
   12908:	56d48e63          	beq	s1,a3,12e84 <__subtf3+0x81a>
   1290c:	20070e63          	beqz	a4,12b28 <__subtf3+0x4be>
   12910:	d859                	beqz	s0,128a6 <__subtf3+0x23c>
   12912:	0325d713          	srl	a4,a1,0x32
   12916:	00174713          	xor	a4,a4,1
   1291a:	8b05                	and	a4,a4,1
   1291c:	0712                	sll	a4,a4,0x4
   1291e:	87ae                	mv	a5,a1
   12920:	8532                	mv	a0,a2
   12922:	841a                	mv	s0,t1
   12924:	84b6                	mv	s1,a3
   12926:	a019                	j	1292c <__subtf3+0x2c2>
   12928:	4bc40663          	beq	s0,t3,12dd4 <__subtf3+0x76a>
   1292c:	6621                	lui	a2,0x8
   1292e:	03d79693          	sll	a3,a5,0x3d
   12932:	810d                	srl	a0,a0,0x3
   12934:	167d                	add	a2,a2,-1 # 7fff <__abi_tag-0x8295>
   12936:	8d55                	or	a0,a0,a3
   12938:	838d                	srl	a5,a5,0x3
   1293a:	1ec41063          	bne	s0,a2,12b1a <__subtf3+0x4b0>
   1293e:	8d5d                	or	a0,a0,a5
   12940:	1a050863          	beqz	a0,12af0 <__subtf3+0x486>
   12944:	4585                	li	a1,1
   12946:	4481                	li	s1,0
   12948:	15be                	sll	a1,a1,0x2f
   1294a:	4501                	li	a0,0
   1294c:	04be                	sll	s1,s1,0xf
   1294e:	05c2                	sll	a1,a1,0x10
   12950:	8cc1                	or	s1,s1,s0
   12952:	14c2                	sll	s1,s1,0x30
   12954:	81c1                	srl	a1,a1,0x10
   12956:	8dc5                	or	a1,a1,s1
   12958:	ff11                	bnez	a4,12874 <__subtf3+0x20a>
   1295a:	70a2                	ld	ra,40(sp)
   1295c:	7402                	ld	s0,32(sp)
   1295e:	64e2                	ld	s1,24(sp)
   12960:	6942                	ld	s2,16(sp)
   12962:	69a2                	ld	s3,8(sp)
   12964:	6a02                	ld	s4,0(sp)
   12966:	6145                	add	sp,sp,48
   12968:	8082                	ret
   1296a:	cf29                	beqz	a4,129c4 <__subtf3+0x35a>
   1296c:	34040c63          	beqz	s0,12cc4 <__subtf3+0x65a>
   12970:	f8c00693          	li	a3,-116
   12974:	4985                	li	s3,1
   12976:	02d74e63          	blt	a4,a3,129b2 <__subtf3+0x348>
   1297a:	19ce                	sll	s3,s3,0x33
   1297c:	40e008bb          	negw	a7,a4
   12980:	0137e7b3          	or	a5,a5,s3
   12984:	03f00713          	li	a4,63
   12988:	5d174a63          	blt	a4,a7,12f5c <__subtf3+0x8f2>
   1298c:	04000713          	li	a4,64
   12990:	4117073b          	subw	a4,a4,a7
   12994:	00e799b3          	sll	s3,a5,a4
   12998:	011556b3          	srl	a3,a0,a7
   1299c:	00e51733          	sll	a4,a0,a4
   129a0:	00d9e9b3          	or	s3,s3,a3
   129a4:	00e03733          	snez	a4,a4
   129a8:	0117d8b3          	srl	a7,a5,a7
   129ac:	00e9e9b3          	or	s3,s3,a4
   129b0:	95c6                	add	a1,a1,a7
   129b2:	964e                	add	a2,a2,s3
   129b4:	013639b3          	sltu	s3,a2,s3
   129b8:	8932                	mv	s2,a2
   129ba:	99ae                	add	s3,s3,a1
   129bc:	841a                	mv	s0,t1
   129be:	bd39                	j	127dc <__subtf3+0x172>
   129c0:	30071163          	bnez	a4,12cc2 <__subtf3+0x658>
   129c4:	6721                	lui	a4,0x8
   129c6:	00140693          	add	a3,s0,1
   129ca:	ffe70813          	add	a6,a4,-2 # 7ffe <__abi_tag-0x8296>
   129ce:	0106f8b3          	and	a7,a3,a6
   129d2:	32089463          	bnez	a7,12cfa <__subtf3+0x690>
   129d6:	00a7e833          	or	a6,a5,a0
   129da:	50041963          	bnez	s0,12eec <__subtf3+0x882>
   129de:	00c5e733          	or	a4,a1,a2
   129e2:	56080a63          	beqz	a6,12f56 <__subtf3+0x8ec>
   129e6:	3e070363          	beqz	a4,12dcc <__subtf3+0x762>
   129ea:	962a                	add	a2,a2,a0
   129ec:	95be                	add	a1,a1,a5
   129ee:	00a63533          	sltu	a0,a2,a0
   129f2:	00a589b3          	add	s3,a1,a0
   129f6:	0339d793          	srl	a5,s3,0x33
   129fa:	8b85                	and	a5,a5,1
   129fc:	8932                	mv	s2,a2
   129fe:	d60781e3          	beqz	a5,12760 <__subtf3+0xf6>
   12a02:	57fd                	li	a5,-1
   12a04:	17ce                	sll	a5,a5,0x33
   12a06:	17fd                	add	a5,a5,-1
   12a08:	00f9f9b3          	and	s3,s3,a5
   12a0c:	4405                	li	s0,1
   12a0e:	87ce                	mv	a5,s3
   12a10:	854a                	mv	a0,s2
   12a12:	4701                	li	a4,0
   12a14:	bf21                	j	1292c <__subtf3+0x2c2>
   12a16:	21c40463          	beq	s0,t3,12c1e <__subtf3+0x5b4>
   12a1a:	07400693          	li	a3,116
   12a1e:	4905                	li	s2,1
   12a20:	cce6cbe3          	blt	a3,a4,126f6 <__subtf3+0x8c>
   12a24:	194e                	sll	s2,s2,0x33
   12a26:	0125e5b3          	or	a1,a1,s2
   12a2a:	03f00693          	li	a3,63
   12a2e:	26e6c663          	blt	a3,a4,12c9a <__subtf3+0x630>
   12a32:	04000693          	li	a3,64
   12a36:	9e99                	subw	a3,a3,a4
   12a38:	00d59933          	sll	s2,a1,a3
   12a3c:	00e65833          	srl	a6,a2,a4
   12a40:	00d616b3          	sll	a3,a2,a3
   12a44:	01096933          	or	s2,s2,a6
   12a48:	00d036b3          	snez	a3,a3
   12a4c:	00e5d733          	srl	a4,a1,a4
   12a50:	00d96933          	or	s2,s2,a3
   12a54:	8f99                	sub	a5,a5,a4
   12a56:	b145                	j	126f6 <__subtf3+0x8c>
   12a58:	00797793          	and	a5,s2,7
   12a5c:	bb6d                	j	12816 <__subtf3+0x1ac>
   12a5e:	00f97793          	and	a5,s2,15
   12a62:	4711                	li	a4,4
   12a64:	dce783e3          	beq	a5,a4,1282a <__subtf3+0x1c0>
   12a68:	00490793          	add	a5,s2,4
   12a6c:	0127b933          	sltu	s2,a5,s2
   12a70:	99ca                	add	s3,s3,s2
   12a72:	4705                	li	a4,1
   12a74:	893e                	mv	s2,a5
   12a76:	bb5d                	j	1282c <__subtf3+0x1c2>
   12a78:	00797693          	and	a3,s2,7
   12a7c:	00191713          	sll	a4,s2,0x1
   12a80:	00199793          	sll	a5,s3,0x1
   12a84:	03f95613          	srl	a2,s2,0x3f
   12a88:	00777593          	and	a1,a4,7
   12a8c:	97b2                	add	a5,a5,a2
   12a8e:	c9e5                	beqz	a1,12b7e <__subtf3+0x514>
   12a90:	4609                	li	a2,2
   12a92:	34ca0663          	beq	s4,a2,12dde <__subtf3+0x774>
   12a96:	460d                	li	a2,3
   12a98:	36ca0a63          	beq	s4,a2,12e0c <__subtf3+0x7a2>
   12a9c:	000a0963          	beqz	s4,12aae <__subtf3+0x444>
   12aa0:	93d1                	srl	a5,a5,0x34
   12aa2:	8b85                	and	a5,a5,1
   12aa4:	c3a1                	beqz	a5,12ae4 <__subtf3+0x47a>
   12aa6:	4705                	li	a4,1
   12aa8:	cef5                	beqz	a3,12ba4 <__subtf3+0x53a>
   12aaa:	4401                	li	s0,0
   12aac:	b3bd                	j	1281a <__subtf3+0x1b0>
   12aae:	00f77613          	and	a2,a4,15
   12ab2:	4591                	li	a1,4
   12ab4:	48b60b63          	beq	a2,a1,12f4a <__subtf3+0x8e0>
   12ab8:	ffc73713          	sltiu	a4,a4,-4
   12abc:	00174713          	xor	a4,a4,1
   12ac0:	1702                	sll	a4,a4,0x20
   12ac2:	9301                	srl	a4,a4,0x20
   12ac4:	97ba                	add	a5,a5,a4
   12ac6:	93d1                	srl	a5,a5,0x34
   12ac8:	8b85                	and	a5,a5,1
   12aca:	fff1                	bnez	a5,12aa6 <__subtf3+0x43c>
   12acc:	ce81                	beqz	a3,12ae4 <__subtf3+0x47a>
   12ace:	00f97793          	and	a5,s2,15
   12ad2:	4711                	li	a4,4
   12ad4:	00e78863          	beq	a5,a4,12ae4 <__subtf3+0x47a>
   12ad8:	00490793          	add	a5,s2,4
   12adc:	0127b933          	sltu	s2,a5,s2
   12ae0:	99ca                	add	s3,s3,s2
   12ae2:	893e                	mv	s2,a5
   12ae4:	4401                	li	s0,0
   12ae6:	470d                	li	a4,3
   12ae8:	b391                	j	1282c <__subtf3+0x1c2>
   12aea:	e08d                	bnez	s1,12b0c <__subtf3+0x4a2>
   12aec:	00576713          	or	a4,a4,5
   12af0:	6421                	lui	s0,0x8
   12af2:	8885                	and	s1,s1,1
   12af4:	147d                	add	s0,s0,-1 # 7fff <__abi_tag-0x8295>
   12af6:	4581                	li	a1,0
   12af8:	4501                	li	a0,0
   12afa:	bd89                	j	1294c <__subtf3+0x2e2>
   12afc:	fe0a08e3          	beqz	s4,12aec <__subtf3+0x482>
   12b00:	478d                	li	a5,3
   12b02:	fefa04e3          	beq	s4,a5,12aea <__subtf3+0x480>
   12b06:	4789                	li	a5,2
   12b08:	26fa0663          	beq	s4,a5,12d74 <__subtf3+0x70a>
   12b0c:	557d                	li	a0,-1
   12b0e:	00576713          	or	a4,a4,5
   12b12:	00355793          	srl	a5,a0,0x3
   12b16:	ffe60413          	add	s0,a2,-2
   12b1a:	07c2                	sll	a5,a5,0x10
   12b1c:	1446                	sll	s0,s0,0x31
   12b1e:	0107d593          	srl	a1,a5,0x10
   12b22:	9045                	srl	s0,s0,0x31
   12b24:	8885                	and	s1,s1,1
   12b26:	b51d                	j	1294c <__subtf3+0x2e2>
   12b28:	66a1                	lui	a3,0x8
   12b2a:	00140713          	add	a4,s0,1
   12b2e:	ffe68893          	add	a7,a3,-2 # 7ffe <__abi_tag-0x8296>
   12b32:	01177733          	and	a4,a4,a7
   12b36:	12071a63          	bnez	a4,12c6a <__subtf3+0x600>
   12b3a:	00c5e8b3          	or	a7,a1,a2
   12b3e:	00a7ee33          	or	t3,a5,a0
   12b42:	1e041a63          	bnez	s0,12d36 <__subtf3+0x6cc>
   12b46:	260e0e63          	beqz	t3,12dc2 <__subtf3+0x758>
   12b4a:	28088163          	beqz	a7,12dcc <__subtf3+0x762>
   12b4e:	40c508b3          	sub	a7,a0,a2
   12b52:	011536b3          	sltu	a3,a0,a7
   12b56:	40b78733          	sub	a4,a5,a1
   12b5a:	8f15                	sub	a4,a4,a3
   12b5c:	03375693          	srl	a3,a4,0x33
   12b60:	8a85                	and	a3,a3,1
   12b62:	48068763          	beqz	a3,12ff0 <__subtf3+0x986>
   12b66:	40a60533          	sub	a0,a2,a0
   12b6a:	8d9d                	sub	a1,a1,a5
   12b6c:	00a63633          	sltu	a2,a2,a0
   12b70:	40c589b3          	sub	s3,a1,a2
   12b74:	892a                	mv	s2,a0
   12b76:	01356733          	or	a4,a0,s3
   12b7a:	84c2                	mv	s1,a6
   12b7c:	b6e5                	j	12764 <__subtf3+0xfa>
   12b7e:	93d1                	srl	a5,a5,0x34
   12b80:	8b85                	and	a5,a5,1
   12b82:	10079a63          	bnez	a5,12c96 <__subtf3+0x62c>
   12b86:	4701                	li	a4,0
   12b88:	ce91                	beqz	a3,12ba4 <__subtf3+0x53a>
   12b8a:	478d                	li	a5,3
   12b8c:	56fa0163          	beq	s4,a5,130ee <__subtf3+0xa84>
   12b90:	f547cae3          	blt	a5,s4,12ae4 <__subtf3+0x47a>
   12b94:	f20a0de3          	beqz	s4,12ace <__subtf3+0x464>
   12b98:	4789                	li	a5,2
   12b9a:	f4fa15e3          	bne	s4,a5,12ae4 <__subtf3+0x47a>
   12b9e:	24049f63          	bnez	s1,12dfc <__subtf3+0x792>
   12ba2:	b789                	j	12ae4 <__subtf3+0x47a>
   12ba4:	0339d793          	srl	a5,s3,0x33
   12ba8:	8b85                	and	a5,a5,1
   12baa:	3e078263          	beqz	a5,12f8e <__subtf3+0x924>
   12bae:	57fd                	li	a5,-1
   12bb0:	17ce                	sll	a5,a5,0x33
   12bb2:	17fd                	add	a5,a5,-1
   12bb4:	00f9f7b3          	and	a5,s3,a5
   12bb8:	4405                	li	s0,1
   12bba:	b961                	j	12852 <__subtf3+0x1e8>
   12bbc:	c60497e3          	bnez	s1,1282a <__subtf3+0x1c0>
   12bc0:	00890793          	add	a5,s2,8
   12bc4:	0127b933          	sltu	s2,a5,s2
   12bc8:	99ca                	add	s3,s3,s2
   12bca:	893e                	mv	s2,a5
   12bcc:	b9b9                	j	1282a <__subtf3+0x1c0>
   12bce:	854a                	mv	a0,s2
   12bd0:	181000ef          	jal	13550 <__clzdi2>
   12bd4:	0345071b          	addw	a4,a0,52
   12bd8:	03f00613          	li	a2,63
   12bdc:	b4e652e3          	bge	a2,a4,12720 <__subtf3+0xb6>
   12be0:	ff45079b          	addw	a5,a0,-12
   12be4:	00f917b3          	sll	a5,s2,a5
   12be8:	10874063          	blt	a4,s0,12ce8 <__subtf3+0x67e>
   12bec:	408706bb          	subw	a3,a4,s0
   12bf0:	0016859b          	addw	a1,a3,1
   12bf4:	42b65463          	bge	a2,a1,1301c <__subtf3+0x9b2>
   12bf8:	fc16869b          	addw	a3,a3,-63
   12bfc:	04000713          	li	a4,64
   12c00:	00d7d933          	srl	s2,a5,a3
   12c04:	00e58b63          	beq	a1,a4,12c1a <__subtf3+0x5b0>
   12c08:	08000713          	li	a4,128
   12c0c:	9f0d                	subw	a4,a4,a1
   12c0e:	00e797b3          	sll	a5,a5,a4
   12c12:	00f037b3          	snez	a5,a5
   12c16:	00f96933          	or	s2,s2,a5
   12c1a:	874a                	mv	a4,s2
   12c1c:	b6a1                	j	12764 <__subtf3+0xfa>
   12c1e:	00a7e733          	or	a4,a5,a0
   12c22:	c331                	beqz	a4,12c66 <__subtf3+0x5fc>
   12c24:	0327d713          	srl	a4,a5,0x32
   12c28:	00174713          	xor	a4,a4,1
   12c2c:	8b05                	and	a4,a4,1
   12c2e:	0712                	sll	a4,a4,0x4
   12c30:	b9f5                	j	1292c <__subtf3+0x2c2>
   12c32:	ffc406e3          	beq	s0,t3,12c1e <__subtf3+0x5b4>
   12c36:	07400693          	li	a3,116
   12c3a:	4985                	li	s3,1
   12c3c:	b8e6cbe3          	blt	a3,a4,127d2 <__subtf3+0x168>
   12c40:	19ce                	sll	s3,s3,0x33
   12c42:	0135e5b3          	or	a1,a1,s3
   12c46:	b685                	j	127a6 <__subtf3+0x13c>
   12c48:	fca5                	bnez	s1,12bc0 <__subtf3+0x556>
   12c4a:	b6c5                	j	1282a <__subtf3+0x1c0>
   12c4c:	59fd                	li	s3,-1
   12c4e:	19ce                	sll	s3,s3,0x33
   12c50:	19fd                	add	s3,s3,-1
   12c52:	00797693          	and	a3,s2,7
   12c56:	8c19                	sub	s0,s0,a4
   12c58:	0137f9b3          	and	s3,a5,s3
   12c5c:	ba069fe3          	bnez	a3,1281a <__subtf3+0x1b0>
   12c60:	4701                	li	a4,0
   12c62:	b6e9                	j	1282c <__subtf3+0x1c2>
   12c64:	84c2                	mv	s1,a6
   12c66:	4701                	li	a4,0
   12c68:	b561                	j	12af0 <__subtf3+0x486>
   12c6a:	40c50733          	sub	a4,a0,a2
   12c6e:	00e536b3          	sltu	a3,a0,a4
   12c72:	40b789b3          	sub	s3,a5,a1
   12c76:	40d989b3          	sub	s3,s3,a3
   12c7a:	0339d693          	srl	a3,s3,0x33
   12c7e:	8a85                	and	a3,a3,1
   12c80:	893a                	mv	s2,a4
   12c82:	e6f9                	bnez	a3,12d50 <__subtf3+0x6e6>
   12c84:	01376733          	or	a4,a4,s3
   12c88:	a80715e3          	bnez	a4,12712 <__subtf3+0xa8>
   12c8c:	ffea0593          	add	a1,s4,-2
   12c90:	0015b593          	seqz	a1,a1
   12c94:	bce1                	j	1276c <__subtf3+0x102>
   12c96:	4701                	li	a4,0
   12c98:	bd01                	j	12aa8 <__subtf3+0x43e>
   12c9a:	fc07069b          	addw	a3,a4,-64
   12c9e:	04000813          	li	a6,64
   12ca2:	00d5d6b3          	srl	a3,a1,a3
   12ca6:	01070963          	beq	a4,a6,12cb8 <__subtf3+0x64e>
   12caa:	08000813          	li	a6,128
   12cae:	40e8073b          	subw	a4,a6,a4
   12cb2:	00e59733          	sll	a4,a1,a4
   12cb6:	8e59                	or	a2,a2,a4
   12cb8:	00c03933          	snez	s2,a2
   12cbc:	00d96933          	or	s2,s2,a3
   12cc0:	bc1d                	j	126f6 <__subtf3+0x8c>
   12cc2:	f055                	bnez	s0,12c66 <__subtf3+0x5fc>
   12cc4:	00a7e6b3          	or	a3,a5,a0
   12cc8:	26068863          	beqz	a3,12f38 <__subtf3+0x8ce>
   12ccc:	fff74893          	not	a7,a4
   12cd0:	2e088663          	beqz	a7,12fbc <__subtf3+0x952>
   12cd4:	6721                	lui	a4,0x8
   12cd6:	177d                	add	a4,a4,-1 # 7fff <__abi_tag-0x8295>
   12cd8:	2ae30663          	beq	t1,a4,12f84 <__subtf3+0x91a>
   12cdc:	07400713          	li	a4,116
   12ce0:	4985                	li	s3,1
   12ce2:	cd1748e3          	blt	a4,a7,129b2 <__subtf3+0x348>
   12ce6:	b979                	j	12984 <__subtf3+0x31a>
   12ce8:	56fd                	li	a3,-1
   12cea:	8c19                	sub	s0,s0,a4
   12cec:	03369713          	sll	a4,a3,0x33
   12cf0:	177d                	add	a4,a4,-1
   12cf2:	8ff9                	and	a5,a5,a4
   12cf4:	4501                	li	a0,0
   12cf6:	4701                	li	a4,0
   12cf8:	b915                	j	1292c <__subtf3+0x2c2>
   12cfa:	177d                	add	a4,a4,-1
   12cfc:	2ae68363          	beq	a3,a4,12fa2 <__subtf3+0x938>
   12d00:	962a                	add	a2,a2,a0
   12d02:	00b78733          	add	a4,a5,a1
   12d06:	00a63533          	sltu	a0,a2,a0
   12d0a:	972a                	add	a4,a4,a0
   12d0c:	00165793          	srl	a5,a2,0x1
   12d10:	03f71913          	sll	s2,a4,0x3f
   12d14:	00f96933          	or	s2,s2,a5
   12d18:	00175993          	srl	s3,a4,0x1
   12d1c:	8b9d                	and	a5,a5,7
   12d1e:	8436                	mv	s0,a3
   12d20:	bcdd                	j	12816 <__subtf3+0x1ac>
   12d22:	67a1                	lui	a5,0x8
   12d24:	17fd                	add	a5,a5,-1 # 7fff <__abi_tag-0x8295>
   12d26:	1af30463          	beq	t1,a5,12ece <__subtf3+0x864>
   12d2a:	87ae                	mv	a5,a1
   12d2c:	8532                	mv	a0,a2
   12d2e:	841a                	mv	s0,t1
   12d30:	84c2                	mv	s1,a6
   12d32:	4701                	li	a4,0
   12d34:	bee5                	j	1292c <__subtf3+0x2c2>
   12d36:	16fd                	add	a3,a3,-1
   12d38:	28d40b63          	beq	s0,a3,12fce <__subtf3+0x964>
   12d3c:	2cd30163          	beq	t1,a3,12ffe <__subtf3+0x994>
   12d40:	4701                	li	a4,0
   12d42:	020e0e63          	beqz	t3,12d7e <__subtf3+0x714>
   12d46:	1a089f63          	bnez	a7,12f04 <__subtf3+0x89a>
   12d4a:	6421                	lui	s0,0x8
   12d4c:	147d                	add	s0,s0,-1 # 7fff <__abi_tag-0x8295>
   12d4e:	bef9                	j	1292c <__subtf3+0x2c2>
   12d50:	40a60533          	sub	a0,a2,a0
   12d54:	8d9d                	sub	a1,a1,a5
   12d56:	00a63633          	sltu	a2,a2,a0
   12d5a:	892a                	mv	s2,a0
   12d5c:	40c589b3          	sub	s3,a1,a2
   12d60:	84c2                	mv	s1,a6
   12d62:	ba45                	j	12712 <__subtf3+0xa8>
   12d64:	962a                	add	a2,a2,a0
   12d66:	95be                	add	a1,a1,a5
   12d68:	00a63533          	sltu	a0,a2,a0
   12d6c:	8932                	mv	s2,a2
   12d6e:	00a589b3          	add	s3,a1,a0
   12d72:	b4ad                	j	127dc <__subtf3+0x172>
   12d74:	d8048ce3          	beqz	s1,12b0c <__subtf3+0x4a2>
   12d78:	00576713          	or	a4,a4,5
   12d7c:	bb95                	j	12af0 <__subtf3+0x486>
   12d7e:	28088563          	beqz	a7,13008 <__subtf3+0x99e>
   12d82:	4701                	li	a4,0
   12d84:	6421                	lui	s0,0x8
   12d86:	87ae                	mv	a5,a1
   12d88:	8532                	mv	a0,a2
   12d8a:	84c2                	mv	s1,a6
   12d8c:	147d                	add	s0,s0,-1 # 7fff <__abi_tag-0x8295>
   12d8e:	be79                	j	1292c <__subtf3+0x2c2>
   12d90:	d8070ce3          	beqz	a4,12b28 <__subtf3+0x4be>
   12d94:	b00409e3          	beqz	s0,128a6 <__subtf3+0x23c>
   12d98:	f8c00693          	li	a3,-116
   12d9c:	0ed74163          	blt	a4,a3,12e7e <__subtf3+0x814>
   12da0:	4685                	li	a3,1
   12da2:	16ce                	sll	a3,a3,0x33
   12da4:	40e0073b          	negw	a4,a4
   12da8:	8fd5                	or	a5,a5,a3
   12daa:	84c2                	mv	s1,a6
   12dac:	be39                	j	128ca <__subtf3+0x260>
   12dae:	40c50633          	sub	a2,a0,a2
   12db2:	40b785b3          	sub	a1,a5,a1
   12db6:	00c53533          	sltu	a0,a0,a2
   12dba:	8932                	mv	s2,a2
   12dbc:	40a589b3          	sub	s3,a1,a0
   12dc0:	b289                	j	12702 <__subtf3+0x98>
   12dc2:	ec0885e3          	beqz	a7,12c8c <__subtf3+0x622>
   12dc6:	87ae                	mv	a5,a1
   12dc8:	8532                	mv	a0,a2
   12dca:	84c2                	mv	s1,a6
   12dcc:	89be                	mv	s3,a5
   12dce:	892a                	mv	s2,a0
   12dd0:	4681                	li	a3,0
   12dd2:	b16d                	j	12a7c <__subtf3+0x412>
   12dd4:	00a7e6b3          	or	a3,a5,a0
   12dd8:	d0068ce3          	beqz	a3,12af0 <__subtf3+0x486>
   12ddc:	b5a1                	j	12c24 <__subtf3+0x5ba>
   12dde:	cc0481e3          	beqz	s1,12aa0 <__subtf3+0x436>
   12de2:	ff873713          	sltiu	a4,a4,-8
   12de6:	00174713          	xor	a4,a4,1
   12dea:	1702                	sll	a4,a4,0x20
   12dec:	9301                	srl	a4,a4,0x20
   12dee:	97ba                	add	a5,a5,a4
   12df0:	93d1                	srl	a5,a5,0x34
   12df2:	8b85                	and	a5,a5,1
   12df4:	ca0799e3          	bnez	a5,12aa6 <__subtf3+0x43c>
   12df8:	ce0686e3          	beqz	a3,12ae4 <__subtf3+0x47a>
   12dfc:	00890793          	add	a5,s2,8
   12e00:	0127b933          	sltu	s2,a5,s2
   12e04:	99ca                	add	s3,s3,s2
   12e06:	4485                	li	s1,1
   12e08:	893e                	mv	s2,a5
   12e0a:	b9e9                	j	12ae4 <__subtf3+0x47a>
   12e0c:	c8049ae3          	bnez	s1,12aa0 <__subtf3+0x436>
   12e10:	ff873713          	sltiu	a4,a4,-8
   12e14:	00174713          	xor	a4,a4,1
   12e18:	1702                	sll	a4,a4,0x20
   12e1a:	9301                	srl	a4,a4,0x20
   12e1c:	97ba                	add	a5,a5,a4
   12e1e:	93d1                	srl	a5,a5,0x34
   12e20:	8b85                	and	a5,a5,1
   12e22:	c80792e3          	bnez	a5,12aa6 <__subtf3+0x43c>
   12e26:	ca068fe3          	beqz	a3,12ae4 <__subtf3+0x47a>
   12e2a:	00890793          	add	a5,s2,8
   12e2e:	0127b933          	sltu	s2,a5,s2
   12e32:	99ca                	add	s3,s3,s2
   12e34:	4481                	li	s1,0
   12e36:	893e                	mv	s2,a5
   12e38:	b175                	j	12ae4 <__subtf3+0x47a>
   12e3a:	060a0463          	beqz	s4,12ea2 <__subtf3+0x838>
   12e3e:	470d                	li	a4,3
   12e40:	06ea0063          	beq	s4,a4,12ea0 <__subtf3+0x836>
   12e44:	4709                	li	a4,2
   12e46:	20ea0763          	beq	s4,a4,13054 <__subtf3+0x9ea>
   12e4a:	59fd                	li	s3,-1
   12e4c:	597d                	li	s2,-1
   12e4e:	ffe78413          	add	s0,a5,-2
   12e52:	4715                	li	a4,5
   12e54:	b2cd                	j	12836 <__subtf3+0x1cc>
   12e56:	fc07069b          	addw	a3,a4,-64
   12e5a:	04000813          	li	a6,64
   12e5e:	00d5d6b3          	srl	a3,a1,a3
   12e62:	01070963          	beq	a4,a6,12e74 <__subtf3+0x80a>
   12e66:	08000813          	li	a6,128
   12e6a:	40e8073b          	subw	a4,a6,a4
   12e6e:	00e59733          	sll	a4,a1,a4
   12e72:	8e59                	or	a2,a2,a4
   12e74:	00c039b3          	snez	s3,a2
   12e78:	00d9e9b3          	or	s3,s3,a3
   12e7c:	ba99                	j	127d2 <__subtf3+0x168>
   12e7e:	84c2                	mv	s1,a6
   12e80:	4905                	li	s2,1
   12e82:	bc95                	j	128f6 <__subtf3+0x28c>
   12e84:	b40700e3          	beqz	a4,129c4 <__subtf3+0x35a>
   12e88:	e2040ee3          	beqz	s0,12cc4 <__subtf3+0x65a>
   12e8c:	0325d713          	srl	a4,a1,0x32
   12e90:	00174713          	xor	a4,a4,1
   12e94:	8b05                	and	a4,a4,1
   12e96:	0712                	sll	a4,a4,0x4
   12e98:	87ae                	mv	a5,a1
   12e9a:	8532                	mv	a0,a2
   12e9c:	841a                	mv	s0,t1
   12e9e:	b479                	j	1292c <__subtf3+0x2c2>
   12ea0:	f4cd                	bnez	s1,12e4a <__subtf3+0x7e0>
   12ea2:	4715                	li	a4,5
   12ea4:	b1b1                	j	12af0 <__subtf3+0x486>
   12ea6:	fc07069b          	addw	a3,a4,-64
   12eaa:	04000813          	li	a6,64
   12eae:	00d7d6b3          	srl	a3,a5,a3
   12eb2:	01070963          	beq	a4,a6,12ec4 <__subtf3+0x85a>
   12eb6:	08000813          	li	a6,128
   12eba:	40e8073b          	subw	a4,a6,a4
   12ebe:	00e797b3          	sll	a5,a5,a4
   12ec2:	8d5d                	or	a0,a0,a5
   12ec4:	00a03933          	snez	s2,a0
   12ec8:	00d96933          	or	s2,s2,a3
   12ecc:	b42d                	j	128f6 <__subtf3+0x28c>
   12ece:	00c5e7b3          	or	a5,a1,a2
   12ed2:	d80789e3          	beqz	a5,12c64 <__subtf3+0x5fa>
   12ed6:	0325d713          	srl	a4,a1,0x32
   12eda:	00174713          	xor	a4,a4,1
   12ede:	8b05                	and	a4,a4,1
   12ee0:	0712                	sll	a4,a4,0x4
   12ee2:	87ae                	mv	a5,a1
   12ee4:	8532                	mv	a0,a2
   12ee6:	841a                	mv	s0,t1
   12ee8:	84c2                	mv	s1,a6
   12eea:	b489                	j	1292c <__subtf3+0x2c2>
   12eec:	fff70693          	add	a3,a4,-1
   12ef0:	10d40e63          	beq	s0,a3,1300c <__subtf3+0x9a2>
   12ef4:	4701                	li	a4,0
   12ef6:	00d30e63          	beq	t1,a3,12f12 <__subtf3+0x8a8>
   12efa:	14080863          	beqz	a6,1304a <__subtf3+0x9e0>
   12efe:	8e4d                	or	a2,a2,a1
   12f00:	e40605e3          	beqz	a2,12d4a <__subtf3+0x6e0>
   12f04:	6421                	lui	s0,0x8
   12f06:	4585                	li	a1,1
   12f08:	4481                	li	s1,0
   12f0a:	147d                	add	s0,s0,-1 # 7fff <__abi_tag-0x8295>
   12f0c:	15be                	sll	a1,a1,0x2f
   12f0e:	4501                	li	a0,0
   12f10:	bc35                	j	1294c <__subtf3+0x2e2>
   12f12:	00c5e6b3          	or	a3,a1,a2
   12f16:	16069c63          	bnez	a3,1308e <__subtf3+0xa24>
   12f1a:	e20818e3          	bnez	a6,12d4a <__subtf3+0x6e0>
   12f1e:	bec9                	j	12af0 <__subtf3+0x486>
   12f20:	40a60533          	sub	a0,a2,a0
   12f24:	8d9d                	sub	a1,a1,a5
   12f26:	00a63633          	sltu	a2,a2,a0
   12f2a:	892a                	mv	s2,a0
   12f2c:	40c589b3          	sub	s3,a1,a2
   12f30:	841a                	mv	s0,t1
   12f32:	84c2                	mv	s1,a6
   12f34:	fceff06f          	j	12702 <__subtf3+0x98>
   12f38:	67a1                	lui	a5,0x8
   12f3a:	17fd                	add	a5,a5,-1 # 7fff <__abi_tag-0x8295>
   12f3c:	04f30463          	beq	t1,a5,12f84 <__subtf3+0x91a>
   12f40:	87ae                	mv	a5,a1
   12f42:	8532                	mv	a0,a2
   12f44:	841a                	mv	s0,t1
   12f46:	4701                	li	a4,0
   12f48:	b2d5                	j	1292c <__subtf3+0x2c2>
   12f4a:	93d1                	srl	a5,a5,0x34
   12f4c:	8b85                	and	a5,a5,1
   12f4e:	b6078fe3          	beqz	a5,12acc <__subtf3+0x462>
   12f52:	4705                	li	a4,1
   12f54:	be91                	j	12aa8 <__subtf3+0x43e>
   12f56:	89ae                	mv	s3,a1
   12f58:	8932                	mv	s2,a2
   12f5a:	b029                	j	12764 <__subtf3+0xfa>
   12f5c:	fc08871b          	addw	a4,a7,-64
   12f60:	04000693          	li	a3,64
   12f64:	00e7d733          	srl	a4,a5,a4
   12f68:	00d88963          	beq	a7,a3,12f7a <__subtf3+0x910>
   12f6c:	08000693          	li	a3,128
   12f70:	411686bb          	subw	a3,a3,a7
   12f74:	00d797b3          	sll	a5,a5,a3
   12f78:	8d5d                	or	a0,a0,a5
   12f7a:	00a039b3          	snez	s3,a0
   12f7e:	00e9e9b3          	or	s3,s3,a4
   12f82:	bc05                	j	129b2 <__subtf3+0x348>
   12f84:	00c5e7b3          	or	a5,a1,a2
   12f88:	f391                	bnez	a5,12e8c <__subtf3+0x822>
   12f8a:	4701                	li	a4,0
   12f8c:	b695                	j	12af0 <__subtf3+0x486>
   12f8e:	03d99513          	sll	a0,s3,0x3d
   12f92:	00395913          	srl	s2,s2,0x3
   12f96:	01256533          	or	a0,a0,s2
   12f9a:	0039d793          	srl	a5,s3,0x3
   12f9e:	4401                	li	s0,0
   12fa0:	bead                	j	12b1a <__subtf3+0x4b0>
   12fa2:	f00a00e3          	beqz	s4,12ea2 <__subtf3+0x838>
   12fa6:	478d                	li	a5,3
   12fa8:	0efa0d63          	beq	s4,a5,130a2 <__subtf3+0xa38>
   12fac:	4789                	li	a5,2
   12fae:	12fa0963          	beq	s4,a5,130e0 <__subtf3+0xa76>
   12fb2:	59fd                	li	s3,-1
   12fb4:	597d                	li	s2,-1
   12fb6:	8442                	mv	s0,a6
   12fb8:	4715                	li	a4,5
   12fba:	b8b5                	j	12836 <__subtf3+0x1cc>
   12fbc:	962a                	add	a2,a2,a0
   12fbe:	95be                	add	a1,a1,a5
   12fc0:	00a63533          	sltu	a0,a2,a0
   12fc4:	8932                	mv	s2,a2
   12fc6:	00a589b3          	add	s3,a1,a0
   12fca:	841a                	mv	s0,t1
   12fcc:	b801                	j	127dc <__subtf3+0x172>
   12fce:	040e1d63          	bnez	t3,13028 <__subtf3+0x9be>
   12fd2:	da8316e3          	bne	t1,s0,12d7e <__subtf3+0x714>
   12fd6:	02088963          	beqz	a7,13008 <__subtf3+0x99e>
   12fda:	0325d793          	srl	a5,a1,0x32
   12fde:	8b85                	and	a5,a5,1
   12fe0:	4741                	li	a4,16
   12fe2:	da0781e3          	beqz	a5,12d84 <__subtf3+0x71a>
   12fe6:	87ae                	mv	a5,a1
   12fe8:	8532                	mv	a0,a2
   12fea:	84c2                	mv	s1,a6
   12fec:	4701                	li	a4,0
   12fee:	ba3d                	j	1292c <__subtf3+0x2c2>
   12ff0:	00e8e7b3          	or	a5,a7,a4
   12ff4:	c8078ce3          	beqz	a5,12c8c <__subtf3+0x622>
   12ff8:	87ba                	mv	a5,a4
   12ffa:	8546                	mv	a0,a7
   12ffc:	bbc1                	j	12dcc <__subtf3+0x762>
   12ffe:	06089a63          	bnez	a7,13072 <__subtf3+0xa08>
   13002:	4701                	li	a4,0
   13004:	d40e13e3          	bnez	t3,12d4a <__subtf3+0x6e0>
   13008:	4741                	li	a4,16
   1300a:	bded                	j	12f04 <__subtf3+0x89a>
   1300c:	04081863          	bnez	a6,1305c <__subtf3+0x9f2>
   13010:	0a830b63          	beq	t1,s0,130c6 <__subtf3+0xa5c>
   13014:	87ae                	mv	a5,a1
   13016:	8532                	mv	a0,a2
   13018:	4701                	li	a4,0
   1301a:	ba09                	j	1292c <__subtf3+0x2c2>
   1301c:	04000693          	li	a3,64
   13020:	9e8d                	subw	a3,a3,a1
   13022:	4701                	li	a4,0
   13024:	f2cff06f          	j	12750 <__subtf3+0xe6>
   13028:	0327d713          	srl	a4,a5,0x32
   1302c:	8b05                	and	a4,a4,1
   1302e:	cf31                	beqz	a4,1308a <__subtf3+0xa20>
   13030:	4701                	li	a4,0
   13032:	d0831ae3          	bne	t1,s0,12d46 <__subtf3+0x6dc>
   13036:	d0088ae3          	beqz	a7,12d4a <__subtf3+0x6e0>
   1303a:	0325d793          	srl	a5,a1,0x32
   1303e:	0017c793          	xor	a5,a5,1
   13042:	8b85                	and	a5,a5,1
   13044:	00479713          	sll	a4,a5,0x4
   13048:	bd75                	j	12f04 <__subtf3+0x89a>
   1304a:	6421                	lui	s0,0x8
   1304c:	87ae                	mv	a5,a1
   1304e:	8532                	mv	a0,a2
   13050:	147d                	add	s0,s0,-1 # 7fff <__abi_tag-0x8295>
   13052:	b8e9                	j	1292c <__subtf3+0x2c2>
   13054:	de048be3          	beqz	s1,12e4a <__subtf3+0x7e0>
   13058:	4715                	li	a4,5
   1305a:	bc59                	j	12af0 <__subtf3+0x486>
   1305c:	4685                	li	a3,1
   1305e:	16ca                	sll	a3,a3,0x32
   13060:	00d7f733          	and	a4,a5,a3
   13064:	c331                	beqz	a4,130a8 <__subtf3+0xa3e>
   13066:	4701                	li	a4,0
   13068:	e8831be3          	bne	t1,s0,12efe <__subtf3+0x894>
   1306c:	8e4d                	or	a2,a2,a1
   1306e:	f671                	bnez	a2,1303a <__subtf3+0x9d0>
   13070:	b875                	j	1292c <__subtf3+0x2c2>
   13072:	0325d793          	srl	a5,a1,0x32
   13076:	8b85                	and	a5,a5,1
   13078:	e3b9                	bnez	a5,130be <__subtf3+0xa54>
   1307a:	f80e17e3          	bnez	t3,13008 <__subtf3+0x99e>
   1307e:	87ae                	mv	a5,a1
   13080:	8532                	mv	a0,a2
   13082:	841a                	mv	s0,t1
   13084:	84c2                	mv	s1,a6
   13086:	4741                	li	a4,16
   13088:	b055                	j	1292c <__subtf3+0x2c2>
   1308a:	4741                	li	a4,16
   1308c:	b96d                	j	12d46 <__subtf3+0x6dc>
   1308e:	0325d693          	srl	a3,a1,0x32
   13092:	8a85                	and	a3,a3,1
   13094:	4741                	li	a4,16
   13096:	e60682e3          	beqz	a3,12efa <__subtf3+0x890>
   1309a:	ea0803e3          	beqz	a6,12f40 <__subtf3+0x8d6>
   1309e:	4701                	li	a4,0
   130a0:	b595                	j	12f04 <__subtf3+0x89a>
   130a2:	f881                	bnez	s1,12fb2 <__subtf3+0x948>
   130a4:	4715                	li	a4,5
   130a6:	b4a9                	j	12af0 <__subtf3+0x486>
   130a8:	4741                	li	a4,16
   130aa:	e4831ae3          	bne	t1,s0,12efe <__subtf3+0x894>
   130ae:	00c5e8b3          	or	a7,a1,a2
   130b2:	c8088ce3          	beqz	a7,12d4a <__subtf3+0x6e0>
   130b6:	8eed                	and	a3,a3,a1
   130b8:	e40681e3          	beqz	a3,12efa <__subtf3+0x890>
   130bc:	b5a1                	j	12f04 <__subtf3+0x89a>
   130be:	c60e06e3          	beqz	t3,12d2a <__subtf3+0x6c0>
   130c2:	4701                	li	a4,0
   130c4:	b581                	j	12f04 <__subtf3+0x89a>
   130c6:	00c5e7b3          	or	a5,a1,a2
   130ca:	b8078ee3          	beqz	a5,12c66 <__subtf3+0x5fc>
   130ce:	0325d713          	srl	a4,a1,0x32
   130d2:	00174713          	xor	a4,a4,1
   130d6:	8b05                	and	a4,a4,1
   130d8:	0712                	sll	a4,a4,0x4
   130da:	87ae                	mv	a5,a1
   130dc:	8532                	mv	a0,a2
   130de:	b0b9                	j	1292c <__subtf3+0x2c2>
   130e0:	ec0489e3          	beqz	s1,12fb2 <__subtf3+0x948>
   130e4:	4715                	li	a4,5
   130e6:	b429                	j	12af0 <__subtf3+0x486>
   130e8:	87ce                	mv	a5,s3
   130ea:	854a                	mv	a0,s2
   130ec:	b081                	j	1292c <__subtf3+0x2c2>
   130ee:	d2048ee3          	beqz	s1,12e2a <__subtf3+0x7c0>
   130f2:	bacd                	j	12ae4 <__subtf3+0x47a>

00000000000130f4 <__extenddftf2>:
   130f4:	1101                	add	sp,sp,-32
   130f6:	e426                	sd	s1,8(sp)
   130f8:	ec06                	sd	ra,24(sp)
   130fa:	e20504d3          	fmv.x.d	s1,fa0
   130fe:	e822                	sd	s0,16(sp)
   13100:	002027f3          	frrm	a5
   13104:	0344d793          	srl	a5,s1,0x34
   13108:	7ff7f793          	and	a5,a5,2047
   1310c:	567d                	li	a2,-1
   1310e:	00178693          	add	a3,a5,1
   13112:	00c65413          	srl	s0,a2,0xc
   13116:	7fe6f693          	and	a3,a3,2046
   1311a:	8c65                	and	s0,s0,s1
   1311c:	90fd                	srl	s1,s1,0x3f
   1311e:	c695                	beqz	a3,1314a <__extenddftf2+0x56>
   13120:	6711                	lui	a4,0x4
   13122:	c0070713          	add	a4,a4,-1024 # 3c00 <__abi_tag-0xc694>
   13126:	97ba                	add	a5,a5,a4
   13128:	17c6                	sll	a5,a5,0x31
   1312a:	00445593          	srl	a1,s0,0x4
   1312e:	93c5                	srl	a5,a5,0x31
   13130:	1472                	sll	s0,s0,0x3c
   13132:	17c6                	sll	a5,a5,0x31
   13134:	8385                	srl	a5,a5,0x1
   13136:	03f49713          	sll	a4,s1,0x3f
   1313a:	8ddd                	or	a1,a1,a5
   1313c:	8522                	mv	a0,s0
   1313e:	8dd9                	or	a1,a1,a4
   13140:	60e2                	ld	ra,24(sp)
   13142:	6442                	ld	s0,16(sp)
   13144:	64a2                	ld	s1,8(sp)
   13146:	6105                	add	sp,sp,32
   13148:	8082                	ret
   1314a:	eb9d                	bnez	a5,13180 <__extenddftf2+0x8c>
   1314c:	c435                	beqz	s0,131b8 <__extenddftf2+0xc4>
   1314e:	8522                	mv	a0,s0
   13150:	400000ef          	jal	13550 <__clzdi2>
   13154:	0005071b          	sext.w	a4,a0
   13158:	47b9                	li	a5,14
   1315a:	06e7c663          	blt	a5,a4,131c6 <__extenddftf2+0xd2>
   1315e:	45bd                	li	a1,15
   13160:	9d89                	subw	a1,a1,a0
   13162:	0315079b          	addw	a5,a0,49
   13166:	00b455b3          	srl	a1,s0,a1
   1316a:	00f41433          	sll	s0,s0,a5
   1316e:	6791                	lui	a5,0x4
   13170:	c0c7879b          	addw	a5,a5,-1012 # 3c0c <__abi_tag-0xc688>
   13174:	9f89                	subw	a5,a5,a0
   13176:	05c2                	sll	a1,a1,0x10
   13178:	17c6                	sll	a5,a5,0x31
   1317a:	81c1                	srl	a1,a1,0x10
   1317c:	93c5                	srl	a5,a5,0x31
   1317e:	bf55                	j	13132 <__extenddftf2+0x3e>
   13180:	cc1d                	beqz	s0,131be <__extenddftf2+0xca>
   13182:	4785                	li	a5,1
   13184:	02f79713          	sll	a4,a5,0x2f
   13188:	00445593          	srl	a1,s0,0x4
   1318c:	8dd9                	or	a1,a1,a4
   1318e:	8241                	srl	a2,a2,0x10
   13190:	07fff6b7          	lui	a3,0x7fff
   13194:	8df1                	and	a1,a1,a2
   13196:	1692                	sll	a3,a3,0x24
   13198:	03f49713          	sll	a4,s1,0x3f
   1319c:	8dd5                	or	a1,a1,a3
   1319e:	17ce                	sll	a5,a5,0x33
   131a0:	03c41513          	sll	a0,s0,0x3c
   131a4:	8dd9                	or	a1,a1,a4
   131a6:	f8f47de3          	bgeu	s0,a5,13140 <__extenddftf2+0x4c>
   131aa:	00186073          	csrs	fflags,16
   131ae:	60e2                	ld	ra,24(sp)
   131b0:	6442                	ld	s0,16(sp)
   131b2:	64a2                	ld	s1,8(sp)
   131b4:	6105                	add	sp,sp,32
   131b6:	8082                	ret
   131b8:	4781                	li	a5,0
   131ba:	4581                	li	a1,0
   131bc:	bf9d                	j	13132 <__extenddftf2+0x3e>
   131be:	67a1                	lui	a5,0x8
   131c0:	17fd                	add	a5,a5,-1 # 7fff <__abi_tag-0x8295>
   131c2:	4581                	li	a1,0
   131c4:	b7bd                	j	13132 <__extenddftf2+0x3e>
   131c6:	ff15059b          	addw	a1,a0,-15
   131ca:	00b415b3          	sll	a1,s0,a1
   131ce:	4401                	li	s0,0
   131d0:	bf79                	j	1316e <__extenddftf2+0x7a>

00000000000131d2 <__trunctfdf2>:
   131d2:	00202e73          	frrm	t3
   131d6:	6621                	lui	a2,0x8
   131d8:	0305d693          	srl	a3,a1,0x30
   131dc:	fff60313          	add	t1,a2,-1 # 7fff <__abi_tag-0x8295>
   131e0:	57fd                	li	a5,-1
   131e2:	0066f6b3          	and	a3,a3,t1
   131e6:	0107d713          	srl	a4,a5,0x10
   131ea:	8f6d                	and	a4,a4,a1
   131ec:	00168893          	add	a7,a3,1 # 7fff001 <__global_pointer$+0x7fe9801>
   131f0:	1679                	add	a2,a2,-2
   131f2:	070e                	sll	a4,a4,0x3
   131f4:	03d55813          	srl	a6,a0,0x3d
   131f8:	00c8f633          	and	a2,a7,a2
   131fc:	00e86833          	or	a6,a6,a4
   13200:	2e01                	sext.w	t3,t3
   13202:	91fd                	srl	a1,a1,0x3f
   13204:	00351713          	sll	a4,a0,0x3
   13208:	ca3d                	beqz	a2,1327e <__trunctfdf2+0xac>
   1320a:	7671                	lui	a2,0xffffc
   1320c:	40060613          	add	a2,a2,1024 # ffffffffffffc400 <__global_pointer$+0xfffffffffffe6c00>
   13210:	96b2                	add	a3,a3,a2
   13212:	7fe00613          	li	a2,2046
   13216:	02d65763          	bge	a2,a3,13244 <__trunctfdf2+0x72>
   1321a:	0e0e0963          	beqz	t3,1330c <__trunctfdf2+0x13a>
   1321e:	470d                	li	a4,3
   13220:	22ee0663          	beq	t3,a4,1344c <__trunctfdf2+0x27a>
   13224:	4709                	li	a4,2
   13226:	4615                	li	a2,5
   13228:	1cee0c63          	beq	t3,a4,13400 <__trunctfdf2+0x22e>
   1322c:	7ff00713          	li	a4,2047
   13230:	1752                	sll	a4,a4,0x34
   13232:	03f59793          	sll	a5,a1,0x3f
   13236:	177d                	add	a4,a4,-1
   13238:	8fd9                	or	a5,a5,a4
   1323a:	00162073          	csrs	fflags,a2
   1323e:	f2078553          	fmv.d.x	fa0,a5
   13242:	8082                	ret
   13244:	0cd05e63          	blez	a3,13320 <__trunctfdf2+0x14e>
   13248:	051e                	sll	a0,a0,0x7
   1324a:	00a03533          	snez	a0,a0
   1324e:	9371                	srl	a4,a4,0x3c
   13250:	8d59                	or	a0,a0,a4
   13252:	0812                	sll	a6,a6,0x4
   13254:	00757793          	and	a5,a0,7
   13258:	00a86833          	or	a6,a6,a0
   1325c:	2e078663          	beqz	a5,13548 <__trunctfdf2+0x376>
   13260:	4789                	li	a5,2
   13262:	16fe0f63          	beq	t3,a5,133e0 <__trunctfdf2+0x20e>
   13266:	4781                	li	a5,0
   13268:	470d                	li	a4,3
   1326a:	06ee0463          	beq	t3,a4,132d2 <__trunctfdf2+0x100>
   1326e:	140e0c63          	beqz	t3,133c6 <__trunctfdf2+0x1f4>
   13272:	10078863          	beqz	a5,13382 <__trunctfdf2+0x1b0>
   13276:	460d                	li	a2,3
   13278:	00385813          	srl	a6,a6,0x3
   1327c:	a231                	j	13388 <__trunctfdf2+0x1b6>
   1327e:	00e86733          	or	a4,a6,a4
   13282:	e285                	bnez	a3,132a2 <__trunctfdf2+0xd0>
   13284:	03f59793          	sll	a5,a1,0x3f
   13288:	db5d                	beqz	a4,1323e <__trunctfdf2+0x6c>
   1328a:	4789                	li	a5,2
   1328c:	1efe0e63          	beq	t3,a5,13488 <__trunctfdf2+0x2b6>
   13290:	478d                	li	a5,3
   13292:	1cfe0d63          	beq	t3,a5,1346c <__trunctfdf2+0x29a>
   13296:	240e0863          	beqz	t3,134e6 <__trunctfdf2+0x314>
   1329a:	4785                	li	a5,1
   1329c:	4805                	li	a6,1
   1329e:	4681                	li	a3,0
   132a0:	b7e1                	j	13268 <__trunctfdf2+0x96>
   132a2:	14070263          	beqz	a4,133e6 <__trunctfdf2+0x214>
   132a6:	4601                	li	a2,0
   132a8:	00669863          	bne	a3,t1,132b8 <__trunctfdf2+0xe6>
   132ac:	03285813          	srl	a6,a6,0x32
   132b0:	00184813          	xor	a6,a6,1
   132b4:	00481613          	sll	a2,a6,0x4
   132b8:	4705                	li	a4,1
   132ba:	4581                	li	a1,0
   132bc:	7ff00793          	li	a5,2047
   132c0:	174e                	sll	a4,a4,0x33
   132c2:	17d2                	sll	a5,a5,0x34
   132c4:	8fd9                	or	a5,a5,a4
   132c6:	15fe                	sll	a1,a1,0x3f
   132c8:	8fcd                	or	a5,a5,a1
   132ca:	fa25                	bnez	a2,1323a <__trunctfdf2+0x68>
   132cc:	f2078553          	fmv.d.x	fa0,a5
   132d0:	8082                	ret
   132d2:	12059163          	bnez	a1,133f4 <__trunctfdf2+0x222>
   132d6:	0821                	add	a6,a6,8
   132d8:	cff5                	beqz	a5,133d4 <__trunctfdf2+0x202>
   132da:	4785                	li	a5,1
   132dc:	17de                	sll	a5,a5,0x37
   132de:	00f877b3          	and	a5,a6,a5
   132e2:	460d                	li	a2,3
   132e4:	dbd1                	beqz	a5,13278 <__trunctfdf2+0xa6>
   132e6:	00168793          	add	a5,a3,1
   132ea:	7ff00713          	li	a4,2047
   132ee:	0ae79363          	bne	a5,a4,13394 <__trunctfdf2+0x1c2>
   132f2:	00566613          	or	a2,a2,5
   132f6:	140e1563          	bnez	t3,13440 <__trunctfdf2+0x26e>
   132fa:	7ff00713          	li	a4,2047
   132fe:	03f59793          	sll	a5,a1,0x3f
   13302:	1752                	sll	a4,a4,0x34
   13304:	8fd9                	or	a5,a5,a4
   13306:	00162073          	csrs	fflags,a2
   1330a:	bf15                	j	1323e <__trunctfdf2+0x6c>
   1330c:	7ff00713          	li	a4,2047
   13310:	03f59793          	sll	a5,a1,0x3f
   13314:	1752                	sll	a4,a4,0x34
   13316:	8fd9                	or	a5,a5,a4
   13318:	4615                	li	a2,5
   1331a:	00162073          	csrs	fflags,a2
   1331e:	b705                	j	1323e <__trunctfdf2+0x6c>
   13320:	fcc00793          	li	a5,-52
   13324:	f6f6c3e3          	blt	a3,a5,1328a <__trunctfdf2+0xb8>
   13328:	03d00793          	li	a5,61
   1332c:	4605                	li	a2,1
   1332e:	8f95                	sub	a5,a5,a3
   13330:	164e                	sll	a2,a2,0x33
   13332:	03f00513          	li	a0,63
   13336:	00c86833          	or	a6,a6,a2
   1333a:	2681                	sext.w	a3,a3
   1333c:	0cf55863          	bge	a0,a5,1340c <__trunctfdf2+0x23a>
   13340:	5675                	li	a2,-3
   13342:	9e15                	subw	a2,a2,a3
   13344:	04000513          	li	a0,64
   13348:	00c85633          	srl	a2,a6,a2
   1334c:	00a78863          	beq	a5,a0,1335c <__trunctfdf2+0x18a>
   13350:	0436869b          	addw	a3,a3,67
   13354:	00d81833          	sll	a6,a6,a3
   13358:	01076733          	or	a4,a4,a6
   1335c:	00e03733          	snez	a4,a4
   13360:	00c76833          	or	a6,a4,a2
   13364:	00181793          	sll	a5,a6,0x1
   13368:	0077f713          	and	a4,a5,7
   1336c:	00787613          	and	a2,a6,7
   13370:	1a071863          	bnez	a4,13520 <__trunctfdf2+0x34e>
   13374:	ce4d                	beqz	a2,1342e <__trunctfdf2+0x25c>
   13376:	4789                	li	a5,2
   13378:	18fe0663          	beq	t3,a5,13504 <__trunctfdf2+0x332>
   1337c:	4785                	li	a5,1
   1337e:	4681                	li	a3,0
   13380:	b5e5                	j	13268 <__trunctfdf2+0x96>
   13382:	00385813          	srl	a6,a6,0x3
   13386:	4605                	li	a2,1
   13388:	0832                	sll	a6,a6,0xc
   1338a:	00c85713          	srl	a4,a6,0xc
   1338e:	7ff6f793          	and	a5,a3,2047
   13392:	bf05                	j	132c2 <__trunctfdf2+0xf0>
   13394:	1ff00713          	li	a4,511
   13398:	1752                	sll	a4,a4,0x34
   1339a:	177d                	add	a4,a4,-1
   1339c:	00385813          	srl	a6,a6,0x3
   133a0:	00e87833          	and	a6,a6,a4
   133a4:	17d2                	sll	a5,a5,0x34
   133a6:	0107e7b3          	or	a5,a5,a6
   133aa:	15fe                	sll	a1,a1,0x3f
   133ac:	8fcd                	or	a5,a5,a1
   133ae:	00162073          	csrs	fflags,a2
   133b2:	b571                	j	1323e <__trunctfdf2+0x6c>
   133b4:	4705                	li	a4,1
   133b6:	0791                	add	a5,a5,4
   133b8:	1762                	sll	a4,a4,0x38
   133ba:	8f7d                	and	a4,a4,a5
   133bc:	00173793          	seqz	a5,a4
   133c0:	4681                	li	a3,0
   133c2:	10060763          	beqz	a2,134d0 <__trunctfdf2+0x2fe>
   133c6:	00f87713          	and	a4,a6,15
   133ca:	4611                	li	a2,4
   133cc:	08c70a63          	beq	a4,a2,13460 <__trunctfdf2+0x28e>
   133d0:	0811                	add	a6,a6,4
   133d2:	f781                	bnez	a5,132da <__trunctfdf2+0x108>
   133d4:	4785                	li	a5,1
   133d6:	17de                	sll	a5,a5,0x37
   133d8:	00f877b3          	and	a5,a6,a5
   133dc:	4605                	li	a2,1
   133de:	b719                	j	132e4 <__trunctfdf2+0x112>
   133e0:	cd81                	beqz	a1,133f8 <__trunctfdf2+0x226>
   133e2:	4781                	li	a5,0
   133e4:	bdcd                	j	132d6 <__trunctfdf2+0x104>
   133e6:	7ff00713          	li	a4,2047
   133ea:	03f59793          	sll	a5,a1,0x3f
   133ee:	1752                	sll	a4,a4,0x34
   133f0:	8fd9                	or	a5,a5,a4
   133f2:	b5b1                	j	1323e <__trunctfdf2+0x6c>
   133f4:	e80791e3          	bnez	a5,13276 <__trunctfdf2+0xa4>
   133f8:	4605                	li	a2,1
   133fa:	00385813          	srl	a6,a6,0x3
   133fe:	b769                	j	13388 <__trunctfdf2+0x1b6>
   13400:	17d2                	sll	a5,a5,0x34
   13402:	ee0588e3          	beqz	a1,132f2 <__trunctfdf2+0x120>
   13406:	00162073          	csrs	fflags,a2
   1340a:	bd15                	j	1323e <__trunctfdf2+0x6c>
   1340c:	0036861b          	addw	a2,a3,3
   13410:	03d00793          	li	a5,61
   13414:	9f95                	subw	a5,a5,a3
   13416:	00c716b3          	sll	a3,a4,a2
   1341a:	00f757b3          	srl	a5,a4,a5
   1341e:	00d03733          	snez	a4,a3
   13422:	8fd9                	or	a5,a5,a4
   13424:	00c81833          	sll	a6,a6,a2
   13428:	00f86833          	or	a6,a6,a5
   1342c:	bf25                	j	13364 <__trunctfdf2+0x192>
   1342e:	03f59793          	sll	a5,a1,0x3f
   13432:	00385813          	srl	a6,a6,0x3
   13436:	0107e7b3          	or	a5,a5,a6
   1343a:	f2078553          	fmv.d.x	fa0,a5
   1343e:	8082                	ret
   13440:	478d                	li	a5,3
   13442:	0afe1563          	bne	t3,a5,134ec <__trunctfdf2+0x31a>
   13446:	ea058ae3          	beqz	a1,132fa <__trunctfdf2+0x128>
   1344a:	b3cd                	j	1322c <__trunctfdf2+0x5a>
   1344c:	4615                	li	a2,5
   1344e:	ea0592e3          	bnez	a1,132f2 <__trunctfdf2+0x120>
   13452:	7ff00793          	li	a5,2047
   13456:	17d2                	sll	a5,a5,0x34
   13458:	4615                	li	a2,5
   1345a:	00162073          	csrs	fflags,a2
   1345e:	b3c5                	j	1323e <__trunctfdf2+0x6c>
   13460:	00385813          	srl	a6,a6,0x3
   13464:	4605                	li	a2,1
   13466:	d38d                	beqz	a5,13388 <__trunctfdf2+0x1b6>
   13468:	460d                	li	a2,3
   1346a:	bf39                	j	13388 <__trunctfdf2+0x1b6>
   1346c:	4805                	li	a6,1
   1346e:	c1b1                	beqz	a1,134b2 <__trunctfdf2+0x2e0>
   13470:	4789                	li	a5,2
   13472:	08fe0d63          	beq	t3,a5,1350c <__trunctfdf2+0x33a>
   13476:	470d                	li	a4,3
   13478:	4785                	li	a5,1
   1347a:	4681                	li	a3,0
   1347c:	deee19e3          	bne	t3,a4,1326e <__trunctfdf2+0x9c>
   13480:	e4058be3          	beqz	a1,132d6 <__trunctfdf2+0x104>
   13484:	460d                	li	a2,3
   13486:	bbcd                	j	13278 <__trunctfdf2+0xa6>
   13488:	4805                	li	a6,1
   1348a:	e585                	bnez	a1,134b2 <__trunctfdf2+0x2e0>
   1348c:	4789                	li	a5,2
   1348e:	00fe0f63          	beq	t3,a5,134ac <__trunctfdf2+0x2da>
   13492:	470d                	li	a4,3
   13494:	4785                	li	a5,1
   13496:	4681                	li	a3,0
   13498:	dcee1be3          	bne	t3,a4,1326e <__trunctfdf2+0x9c>
   1349c:	bd2d                	j	132d6 <__trunctfdf2+0x104>
   1349e:	00f7f713          	and	a4,a5,15
   134a2:	4691                	li	a3,4
   134a4:	f0d718e3          	bne	a4,a3,133b4 <__trunctfdf2+0x1e2>
   134a8:	ec0617e3          	bnez	a2,13376 <__trunctfdf2+0x1a4>
   134ac:	4681                	li	a3,0
   134ae:	460d                	li	a2,3
   134b0:	b3e1                	j	13278 <__trunctfdf2+0xa6>
   134b2:	4605                	li	a2,1
   134b4:	4805                	li	a6,1
   134b6:	4789                	li	a5,2
   134b8:	4705                	li	a4,1
   134ba:	07a1                	add	a5,a5,8
   134bc:	1762                	sll	a4,a4,0x38
   134be:	8f7d                	and	a4,a4,a5
   134c0:	00173793          	seqz	a5,a4
   134c4:	c611                	beqz	a2,134d0 <__trunctfdf2+0x2fe>
   134c6:	4709                	li	a4,2
   134c8:	04ee0563          	beq	t3,a4,13512 <__trunctfdf2+0x340>
   134cc:	4681                	li	a3,0
   134ce:	bb69                	j	13268 <__trunctfdf2+0x96>
   134d0:	df71                	beqz	a4,134ac <__trunctfdf2+0x2da>
   134d2:	03f59793          	sll	a5,a1,0x3f
   134d6:	00385813          	srl	a6,a6,0x3
   134da:	0107e7b3          	or	a5,a5,a6
   134de:	4605                	li	a2,1
   134e0:	00162073          	csrs	fflags,a2
   134e4:	bba9                	j	1323e <__trunctfdf2+0x6c>
   134e6:	4815                	li	a6,5
   134e8:	4681                	li	a3,0
   134ea:	bbc5                	j	132da <__trunctfdf2+0x108>
   134ec:	4789                	li	a5,2
   134ee:	d2fe1fe3          	bne	t3,a5,1322c <__trunctfdf2+0x5a>
   134f2:	e00594e3          	bnez	a1,132fa <__trunctfdf2+0x128>
   134f6:	00000797          	auipc	a5,0x0
   134fa:	13a7b783          	ld	a5,314(a5) # 13630 <__clzdi2+0xe0>
   134fe:	00162073          	csrs	fflags,a2
   13502:	bb35                	j	1323e <__trunctfdf2+0x6c>
   13504:	d5c5                	beqz	a1,134ac <__trunctfdf2+0x2da>
   13506:	4785                	li	a5,1
   13508:	4681                	li	a3,0
   1350a:	b3f1                	j	132d6 <__trunctfdf2+0x104>
   1350c:	0821                	add	a6,a6,8
   1350e:	4681                	li	a3,0
   13510:	b3e9                	j	132da <__trunctfdf2+0x108>
   13512:	e589                	bnez	a1,1351c <__trunctfdf2+0x34a>
   13514:	ffc1                	bnez	a5,134ac <__trunctfdf2+0x2da>
   13516:	4681                	li	a3,0
   13518:	4605                	li	a2,1
   1351a:	b5c5                	j	133fa <__trunctfdf2+0x228>
   1351c:	4681                	li	a3,0
   1351e:	bb65                	j	132d6 <__trunctfdf2+0x104>
   13520:	4709                	li	a4,2
   13522:	00ee0f63          	beq	t3,a4,13540 <__trunctfdf2+0x36e>
   13526:	470d                	li	a4,3
   13528:	00ee0863          	beq	t3,a4,13538 <__trunctfdf2+0x366>
   1352c:	f60e09e3          	beqz	t3,1349e <__trunctfdf2+0x2cc>
   13530:	4681                	li	a3,0
   13532:	de2d                	beqz	a2,134ac <__trunctfdf2+0x2da>
   13534:	460d                	li	a2,3
   13536:	b389                	j	13278 <__trunctfdf2+0xa6>
   13538:	d1c1                	beqz	a1,134b8 <__trunctfdf2+0x2e6>
   1353a:	fa1d                	bnez	a2,13470 <__trunctfdf2+0x29e>
   1353c:	4681                	li	a3,0
   1353e:	bf85                	j	134ae <__trunctfdf2+0x2dc>
   13540:	fda5                	bnez	a1,134b8 <__trunctfdf2+0x2e6>
   13542:	f629                	bnez	a2,1348c <__trunctfdf2+0x2ba>
   13544:	4681                	li	a3,0
   13546:	b7a5                	j	134ae <__trunctfdf2+0x2dc>
   13548:	00385813          	srl	a6,a6,0x3
   1354c:	4601                	li	a2,0
   1354e:	bd2d                	j	13388 <__trunctfdf2+0x1b6>

0000000000013550 <__clzdi2>:
   13550:	03855793          	srl	a5,a0,0x38
   13554:	e7a9                	bnez	a5,1359e <__clzdi2+0x4e>
   13556:	03800793          	li	a5,56
   1355a:	a011                	j	1355e <__clzdi2+0xe>
   1355c:	e29d                	bnez	a3,13582 <__clzdi2+0x32>
   1355e:	17e1                	add	a5,a5,-8
   13560:	00f55733          	srl	a4,a0,a5
   13564:	0ff77693          	zext.b	a3,a4
   13568:	fbf5                	bnez	a5,1355c <__clzdi2+0xc>
   1356a:	04000693          	li	a3,64
   1356e:	00002797          	auipc	a5,0x2
   13572:	ada7b783          	ld	a5,-1318(a5) # 15048 <_GLOBAL_OFFSET_TABLE_+0x8>
   13576:	97aa                	add	a5,a5,a0
   13578:	0007c503          	lbu	a0,0(a5)
   1357c:	40a6853b          	subw	a0,a3,a0
   13580:	8082                	ret
   13582:	04000693          	li	a3,64
   13586:	8e9d                	sub	a3,a3,a5
   13588:	853a                	mv	a0,a4
   1358a:	00002797          	auipc	a5,0x2
   1358e:	abe7b783          	ld	a5,-1346(a5) # 15048 <_GLOBAL_OFFSET_TABLE_+0x8>
   13592:	97aa                	add	a5,a5,a0
   13594:	0007c503          	lbu	a0,0(a5)
   13598:	40a6853b          	subw	a0,a3,a0
   1359c:	8082                	ret
   1359e:	853e                	mv	a0,a5
   135a0:	46a1                	li	a3,8
   135a2:	b7f1                	j	1356e <__clzdi2+0x1e>
